(lp0
ccopy_reg
_reconstructor
p1
(c__main__
Neural_Network
p2
c__builtin__
object
p3
Ntp4
Rp5
(dp6
S'output_layer_size'
p7
I1
sS'z2'
p8
cnumpy.core.multiarray
_reconstruct
p9
(cnumpy
ndarray
p10
(I0
tp11
S'b'
p12
tp13
Rp14
(I1
(I1
I6
tp15
cnumpy
dtype
p16
(S'f8'
p17
I0
I1
tp18
Rp19
(I3
S'<'
p20
NNNI-1
I-1
I0
tp21
bI00
S'\x93\xeb\xfd,\x8c\x02\x86\xc0d\xd7\xe6@\xe7\xde\x80\xc0^\x02\x8d\x02n>\x90@\xd5\x82\x8b\x90\xee(\x82@X\x91\xd4(2\xe10\xc0\xfc\x97)\xf3\xdd\xa9m\xc0'
p22
tp23
bsS'input_layer_size'
p24
I4
sS'hidden_layer_size'
p25
I6
sS'weights'
p26
(lp27
(lp28
(lp29
F0.27261907077844855
aF3.0656140757315917
aF4.947418765826511
aF-1.8310772218432267
aF-3.074113875701593
aF-0.9908873136398442
aa(lp30
F4.572229565728347
aF0.9042749063819197
aF-7.050081799037758
aF-3.4380303082587385
aF-0.16477738236920939
aF-0.5600227671070892
aa(lp31
F1.9428791184374794
aF1.229351222812372
aF1.2936632737831222
aF2.4871778282216837
aF-3.2821642992826843
aF-3.3608314751018824
aa(lp32
F1.0678902771669114
aF-2.4538356132939514
aF-0.16928717015798375
aF0.13511614135615926
aF-1.6202754772532424
aF-3.688380207348213
aaa(lp33
(lp34
F1.7732304102839327
aa(lp35
F-0.8852736957899054
aa(lp36
F-4.719521177215582
aa(lp37
F2.0136853712715044
aa(lp38
F-1.6862458223119734
aa(lp39
F-0.0625880678768572
aaasS'W2'
p40
g33
sS'W1'
p41
g28
sS'fitness'
p42
I378
sS'a2'
p43
g9
(g10
(I0
tp44
g12
tp45
Rp46
(I1
(I1
I6
tp47
g19
I00
S'k\xa1-\xe9J\x83m\x00N\x83\xec\xde\x10\xa9A\x0f\x00\x00\x00\x00\x00\x00\xf0?\x00\x00\x00\x00\x00\x00\xf0?\xf9\xde\x86\xbbo\x11i>0-\x1d\xbf#\xdf\x88*'
p48
tp49
bsS'chromosome'
p50
(lp51
F0.27261907077844855
aF3.0656140757315917
aF4.947418765826511
aF-1.8310772218432267
aF-3.074113875701593
aF-0.9908873136398442
aF4.572229565728347
aF0.9042749063819197
aF-7.050081799037758
aF-3.4380303082587385
aF-0.16477738236920939
aF-0.5600227671070892
aF1.9428791184374794
aF1.229351222812372
aF1.2936632737831222
aF2.4871778282216837
aF-3.2821642992826843
aF-3.3608314751018824
aF1.0678902771669114
aF-2.4538356132939514
aF-0.16928717015798375
aF0.13511614135615926
aF-1.6202754772532424
aF-3.688380207348213
aF1.7732304102839327
aF-0.8852736957899054
aF-4.719521177215582
aF2.0136853712715044
aF-1.6862458223119734
aF-0.0625880678768572
asS'z3'
p52
g9
(g10
(I0
tp53
g12
tp54
Rp55
(I1
(I1
I1
tp56
g19
I00
S'JY\xc8H\x8d\xa5\x05\xc0'
p57
tp58
bsbag1
(g2
g3
Ntp59
Rp60
(dp61
g7
I1
sg8
g9
(g10
(I0
tp62
g12
tp63
Rp64
(I1
(I1
I6
tp65
g19
I00
S'\xf2*\xfdAh\x0em@\x93\xaf\x0cv\t\xe1\x8e\xc0\x1c\x82\xd7\x1d\xdb4@\xc0\xea?a\x02\xaa/\x7f@\x13\x7f;3\x9e\xa3y\xc0`Si0\xe0l\x8f\xc0'
p66
tp67
bsg24
I4
sg25
I6
sg26
(lp68
(lp69
(lp70
F0.06535281477431135
aF3.2465499631540307
aF4.777678270532654
aF-1.8310772218432267
aF-2.9910804726244806
aF-0.9908873136398442
aa(lp71
F4.572229565728347
aF0.9042749063819197
aF-6.952883607262841
aF-3.4380303082587385
aF0.6201401561042601
aF-0.4108130530625601
aa(lp72
F1.7710366786093217
aF2.2350312877362373
aF2.0742933978255187
aF2.3775152298715985
aF-3.0763630575963887
aF-2.640110780100823
aa(lp73
F1.4645436972461339
aF-2.4560956797454785
aF0.30047092380197976
aF-0.3846312072218587
aF-2.188565428594468
aF-3.7590898796782706
aaa(lp74
(lp75
F1.4078331638307406
aa(lp76
F-0.01974138795362354
aa(lp77
F-4.702642444610439
aa(lp78
F2.837766274939498
aa(lp79
F-1.4931450249220901
aa(lp80
F0.16415183230239133
aaasg40
g74
sg41
g69
sg42
I168
sg43
g9
(g10
(I0
tp81
g12
tp82
Rp83
(I1
(I1
I6
tp84
g19
I00
S'\x00\x00\x00\x00\x00\x00\xf0?\x00\x00\x00\x00\x00\x00\x00\x00\x19\x11CM\xb3\xde\x02=\x00\x00\x00\x00\x00\x00\xf0?\x9c\xa9\x87\xddm\xfc\xf1\x1a\x00\x00\x00\x00\x00\x00\x00\x00'
p85
tp86
bsg50
(lp87
F0.06535281477431135
aF3.2465499631540307
aF4.777678270532654
aF-1.8310772218432267
aF-2.9910804726244806
aF-0.9908873136398442
aF4.572229565728347
aF0.9042749063819197
aF-6.952883607262841
aF-3.4380303082587385
aF0.6201401561042601
aF-0.4108130530625601
aF1.7710366786093217
aF2.2350312877362373
aF2.0742933978255187
aF2.3775152298715985
aF-3.0763630575963887
aF-2.640110780100823
aF1.4645436972461339
aF-2.4560956797454785
aF0.30047092380197976
aF-0.3846312072218587
aF-2.188565428594468
aF-3.7590898796782706
aF1.4078331638307406
aF-0.01974138795362354
aF-4.702642444610439
aF2.837766274939498
aF-1.4931450249220901
aF0.16415183230239133
asg52
g9
(g10
(I0
tp88
g12
tp89
Rp90
(I1
(I1
I1
tp91
g19
I00
S'`\xbcUk~\xfb\x10@'
p92
tp93
bsbag1
(g2
g3
Ntp94
Rp95
(dp96
g7
I1
sg8
g9
(g10
(I0
tp97
g12
tp98
Rp99
(I1
(I1
I6
tp100
g19
I00
S"\x84\xde\x97\x8f9\xcb\x83\xc0B\xb7N\xd8\x10\x1au\xc0\x97\x9b\xe7\xdf'\x90\x90@\xbd@\n\xa8\xcd\x0b\x86@\xf3*\xad\x8c\xfcCV\xc0z\xa0\xb3S-\xf4j\xc0"
p101
tp102
bsg24
I4
sg25
I6
sg26
(lp103
(lp104
(lp105
F0.27261907077844855
aF3.435795478353236
aF4.947418765826511
aF-1.5870643870103818
aF-3.074113875701593
aF-0.9908873136398442
aa(lp106
F4.572229565728347
aF0.9042749063819197
aF-7.050081799037758
aF-3.4380303082587385
aF-0.13450994257682203
aF-0.5600227671070892
aa(lp107
F1.9428791184374794
aF1.404882079937436
aF1.2936632737831222
aF2.4871778282216837
aF-3.2821642992826843
aF-3.3608314751018824
aa(lp108
F1.2018263407030798
aF-2.3479631892182833
aF-0.17398855160906576
aF0.34763799268521445
aF-1.6202754772532424
aF-3.974416958286726
aaa(lp109
(lp110
F1.7732304102839327
aa(lp111
F-0.6597786297428253
aa(lp112
F-4.719521177215582
aa(lp113
F2.0136853712715044
aa(lp114
F-1.6862458223119734
aa(lp115
F0.08118028557694162
aaasg40
g109
sg41
g104
sg42
I720
sg43
g9
(g10
(I0
tp116
g12
tp117
Rp118
(I1
(I1
I6
tp119
g19
I00
S'\xa7;\xc9\xa2\x9bH\xd2\x06CA\xf5\xb7q\xf1}!\x00\x00\x00\x00\x00\x00\xf0?\x00\x00\x00\x00\x00\x00\xf0?\x7fj\x00U\x07\xca\xe67\xden\x80\x8b^\x15~,'
p120
tp121
bsg50
(lp122
F0.27261907077844855
aF3.435795478353236
aF4.947418765826511
aF-1.5870643870103818
aF-3.074113875701593
aF-0.9908873136398442
aF4.572229565728347
aF0.9042749063819197
aF-7.050081799037758
aF-3.4380303082587385
aF-0.13450994257682203
aF-0.5600227671070892
aF1.9428791184374794
aF1.404882079937436
aF1.2936632737831222
aF2.4871778282216837
aF-3.2821642992826843
aF-3.3608314751018824
aF1.2018263407030798
aF-2.3479631892182833
aF-0.17398855160906576
aF0.34763799268521445
aF-1.6202754772532424
aF-3.974416958286726
aF1.7732304102839327
aF-0.6597786297428253
aF-4.719521177215582
aF2.0136853712715044
aF-1.6862458223119734
aF0.08118028557694162
asg52
g9
(g10
(I0
tp123
g12
tp124
Rp125
(I1
(I1
I1
tp126
g19
I00
S'C\x017>\x8d\xa5\x05\xc0'
p127
tp128
bsbag1
(g2
g3
Ntp129
Rp130
(dp131
g7
I1
sg8
g9
(g10
(I0
tp132
g12
tp133
Rp134
(I1
(I1
I6
tp135
g16
(S'f8'
p136
I0
I1
tp137
Rp138
(I3
S'<'
p139
NNNI-1
I-1
I0
tp140
bI00
S'*y\xc3<=1\x8b@\x8e\xf9N\xb6\x9a\x91p\xc0\xa2n\xb4\x93\xce \x92@:\xc5\xb3U\x95\xc1\x9e@\xe3\xaag\x0f\x1ee\x9f\xc0%]\x02bR\x12\xa5\xc0'
p141
tp142
bsg24
I4
sg25
I6
sg26
(lp143
(lp144
(lp145
F0.5586378617985683
aF2.9867845259694317
aF4.805701725755737
aF-1.8656215358758053
aF-2.820270179777043
aF-1.2446007806809436
aa(lp146
F5.043283471509422
aF1.0028224013517921
aF-6.800153383815822
aF-3.361503654851055
aF-0.1335026983184924
aF-0.5600227671070892
aa(lp147
F2.10097946567506
aF1.1906157790129168
aF1.5443951374825933
aF2.4871778282216837
aF-3.2821642992826843
aF-3.3608314751018824
aa(lp148
F1.2018263407030798
aF-2.4538356132939514
aF-0.38596395231415215
aF0.13511614135615926
aF-1.6202754772532424
aF-3.974416958286726
aaa(lp149
(lp150
F1.7732304102839327
aa(lp151
F-0.7449454647282644
aa(lp152
F-4.719521177215582
aa(lp153
F2.0136853712715044
aa(lp154
F-1.6862458223119734
aa(lp155
F-0.3284130036078603
aaasg40
g149
sg41
g144
sg42
I1
sg43
g9
(g10
(I0
tp156
g12
tp157
Rp158
(I1
(I1
I6
tp159
g138
I00
S'\x00\x00\x00\x00\x00\x00\xf0?u\xe5\xdd\x91;H\x07(\x00\x00\x00\x00\x00\x00\xf0?\x00\x00\x00\x00\x00\x00\xf0?\x00\x00\x00\x00\x00\x00\x00\x00\x00\x00\x00\x00\x00\x00\x00\x00'
p160
tp161
bsg50
(lp162
F0.5586378617985683
aF2.9867845259694317
aF4.805701725755737
aF-1.8656215358758053
aF-2.820270179777043
aF-1.2446007806809436
aF5.043283471509422
aF1.0028224013517921
aF-6.800153383815822
aF-3.361503654851055
aF-0.1335026983184924
aF-0.5600227671070892
aF2.10097946567506
aF1.1906157790129168
aF1.5443951374825933
aF2.4871778282216837
aF-3.2821642992826843
aF-3.3608314751018824
aF1.2018263407030798
aF-2.4538356132939514
aF-0.38596395231415215
aF0.13511614135615926
aF-1.6202754772532424
aF-3.974416958286726
aF1.7732304102839327
aF-0.7449454647282644
aF-4.719521177215582
aF2.0136853712715044
aF-1.6862458223119734
aF-0.3284130036078603
asg52
g9
(g10
(I0
tp163
g12
tp164
Rp165
(I1
(I1
I1
tp166
g138
I00
S'\xec\xdeME\xe7\xd7\xed\xbf'
p167
tp168
bsbag1
(g2
g3
Ntp169
Rp170
(dp171
g7
I1
sg8
g9
(g10
(I0
tp172
g12
tp173
Rp174
(I1
(I1
I6
tp175
g138
I00
S'\xcdD\xe1\xb6\xc7\xa4\x8c@\xd0\xc3\xa5\x19\x1dSS@\xf9\x03\x82Q\x10\xb6\x93@\xe9\xe8\xaf\x83\x87}\x9b@p\xeen2\x0b\x1a\x9f\xc0\xeb\xd6\xd1\x91\xeb\xfd\xa2\xc0'
p176
tp177
bsg24
I4
sg25
I6
sg26
(lp178
(lp179
(lp180
F0.27261907077844855
aF2.9845289014196776
aF4.704851883360444
aF-2.1854980302205456
aF-2.526978430076465
aF-1.0173570491723325
aa(lp181
F4.340675092136988
aF1.4433171423995548
aF-6.752774607308578
aF-3.316329870084135
aF0.9420088162687055
aF-0.4108130530625601
aa(lp182
F1.7710366786093217
aF2.021867877546843
aF2.0742933978255187
aF2.160604744552073
aF-3.1303569515049228
aF-3.0432897719785252
aa(lp183
F1.2091960971301836
aF-2.580699279515481
aF0.30047092380197976
aF0.10098866304852011
aF-1.7635809247464427
aF-3.550932624714143
aaa(lp184
(lp185
F1.6625703707324275
aa(lp186
F-0.01974138795362354
aa(lp187
F-4.576063935312372
aa(lp188
F2.837766274939498
aa(lp189
F-1.500325409456484
aa(lp190
F0.16415183230239133
aaasg40
g184
sg41
g179
sg42
I1
sg43
g9
(g10
(I0
tp191
g12
tp192
Rp193
(I1
(I1
I6
tp194
g138
I00
S'\x00\x00\x00\x00\x00\x00\xf0?\x00\x00\x00\x00\x00\x00\xf0?\x00\x00\x00\x00\x00\x00\xf0?\x00\x00\x00\x00\x00\x00\xf0?\x00\x00\x00\x00\x00\x00\x00\x00\x00\x00\x00\x00\x00\x00\x00\x00'
p195
tp196
bsg50
(lp197
F0.27261907077844855
aF2.9845289014196776
aF4.704851883360444
aF-2.1854980302205456
aF-2.526978430076465
aF-1.0173570491723325
aF4.340675092136988
aF1.4433171423995548
aF-6.752774607308578
aF-3.316329870084135
aF0.9420088162687055
aF-0.4108130530625601
aF1.7710366786093217
aF2.021867877546843
aF2.0742933978255187
aF2.160604744552073
aF-3.1303569515049228
aF-3.0432897719785252
aF1.2091960971301836
aF-2.580699279515481
aF0.30047092380197976
aF0.10098866304852011
aF-1.7635809247464427
aF-3.550932624714143
aF1.6625703707324275
aF-0.01974138795362354
aF-4.576063935312372
aF2.837766274939498
aF-1.500325409456484
aF0.16415183230239133
asg52
g9
(g10
(I0
tp198
g12
tp199
Rp200
(I1
(I1
I1
tp201
g138
I00
S'\x00\x14\x0f\xa0\xa2p\xb8\xbf'
p202
tp203
bsbag1
(g2
g3
Ntp204
Rp205
(dp206
g7
I1
sg8
g9
(g10
(I0
tp207
g12
tp208
Rp209
(I1
(I1
I6
tp210
g138
I00
S'\xcb\x85u?\xc4\x16\x81@r\xf6\xf6sG\xecl\xc0\x10X\x165\x89\x8c\x9c@\xf1\x08Z\xa7=5\x9c@\xe3\x10\xf2\x97\r\x8c\x9f\xc0\xc0\t&\xf1;t\xa4\xc0'
p211
tp212
bsg24
I4
sg25
I6
sg26
(lp213
(lp214
(lp215
F0.3015342166859786
aF3.298134984580596
aF5.048389573852666
aF-2.1646243292229093
aF-2.6253227216847335
aF-1.8392067062910353
aa(lp216
F5.083809032693557
aF1.9683423455890654
aF-6.851098908466895
aF-2.8807844135028864
aF0.5766480993692182
aF-0.535973983282992
aa(lp217
F1.7790667269639684
aF1.3831086187043447
aF2.0228816965178247
aF2.0786471368413344
aF-2.8110692666113257
aF-3.2869330346788366
aa(lp218
F1.1860713878491869
aF-2.391060550288058
aF-0.26698114010627133
aF0.4499264948850692
aF-1.9504798545913717
aF-3.8328675792688562
aaa(lp219
(lp220
F2.047626209499224
aa(lp221
F-0.7143364201932253
aa(lp222
F-4.471945139704755
aa(lp223
F1.7357043635524811
aa(lp224
F-1.7883873995416666
aa(lp225
F0.7717427762699949
aaasg40
g219
sg41
g214
sg42
I1
sg43
g9
(g10
(I0
tp226
g12
tp227
Rp228
(I1
(I1
I6
tp229
g138
I00
S'\x00\x00\x00\x00\x00\x00\xf0?\xe0\xb1SB\xb2,\x12+\x00\x00\x00\x00\x00\x00\xf0?\x00\x00\x00\x00\x00\x00\xf0?\x00\x00\x00\x00\x00\x00\x00\x00\x00\x00\x00\x00\x00\x00\x00\x00'
p230
tp231
bsg50
(lp232
F0.3015342166859786
aF3.298134984580596
aF5.048389573852666
aF-2.1646243292229093
aF-2.6253227216847335
aF-1.8392067062910353
aF5.083809032693557
aF1.9683423455890654
aF-6.851098908466895
aF-2.8807844135028864
aF0.5766480993692182
aF-0.535973983282992
aF1.7790667269639684
aF1.3831086187043447
aF2.0228816965178247
aF2.0786471368413344
aF-2.8110692666113257
aF-3.2869330346788366
aF1.1860713878491869
aF-2.391060550288058
aF-0.26698114010627133
aF0.4499264948850692
aF-1.9504798545913717
aF-3.8328675792688562
aF2.047626209499224
aF-0.7143364201932253
aF-4.471945139704755
aF1.7357043635524811
aF-1.7883873995416666
aF0.7717427762699949
asg52
g9
(g10
(I0
tp233
g12
tp234
Rp235
(I1
(I1
I1
tp236
g138
I00
S'\xb8^jj!\t\xe6\xbf'
p237
tp238
bsbag1
(g2
g3
Ntp239
Rp240
(dp241
g7
I1
sg8
g9
(g10
(I0
tp242
g12
tp243
Rp244
(I1
(I1
I6
tp245
g138
I00
S'\xae:\xcch\xf2\x07u@\x16\x85V\xcbp\xcdx@\xc8+a!l\xde\xa7@\x8d>F#\x14\x08\x9a@\xbeZ6\xab\x87\xc5\xa4\xc0\x80<\xf1S\x0e\x06\xa2\xc0'
p246
tp247
bsg24
I4
sg25
I6
sg26
(lp248
(lp249
(lp250
F0.04814446626796616
aF2.929377413655521
aF4.905591445844488
aF-2.0212943411475646
aF-2.190045682514955
aF-0.9993966107229443
aa(lp251
F4.036386901457264
aF1.3884835180872497
aF-6.752774607308578
aF-2.788890335709879
aF0.6785070858131168
aF-0.5322731626851408
aa(lp252
F1.7710366786093217
aF2.0792397342020945
aF2.0742933978255187
aF2.2268943799021006
aF-3.1877658978134042
aF-2.640110780100823
aa(lp253
F1.2447533632149481
aF-2.4560956797454785
aF0.09563558518449314
aF-0.7039208324527194
aF-2.430574252938699
aF-3.7077487232988107
aaa(lp254
(lp255
F1.8210966481682274
aa(lp256
F0.008654168081997642
aa(lp257
F-4.616413806029209
aa(lp258
F3.0820080131397716
aa(lp259
F-1.500325409456484
aa(lp260
F-0.01315330653494158
aaasg40
g254
sg41
g249
sg42
I1
sg43
g9
(g10
(I0
tp261
g12
tp262
Rp263
(I1
(I1
I6
tp264
g138
I00
S'\x00\x00\x00\x00\x00\x00\xf0?\x00\x00\x00\x00\x00\x00\xf0?\x00\x00\x00\x00\x00\x00\xf0?\x00\x00\x00\x00\x00\x00\xf0?\x00\x00\x00\x00\x00\x00\x00\x00\x00\x00\x00\x00\x00\x00\x00\x00'
p265
tp266
bsg50
(lp267
F0.04814446626796616
aF2.929377413655521
aF4.905591445844488
aF-2.0212943411475646
aF-2.190045682514955
aF-0.9993966107229443
aF4.036386901457264
aF1.3884835180872497
aF-6.752774607308578
aF-2.788890335709879
aF0.6785070858131168
aF-0.5322731626851408
aF1.7710366786093217
aF2.0792397342020945
aF2.0742933978255187
aF2.2268943799021006
aF-3.1877658978134042
aF-2.640110780100823
aF1.2447533632149481
aF-2.4560956797454785
aF0.09563558518449314
aF-0.7039208324527194
aF-2.430574252938699
aF-3.7077487232988107
aF1.8210966481682274
aF0.008654168081997642
aF-4.616413806029209
aF3.0820080131397716
aF-1.500325409456484
aF-0.01315330653494158
asg52
g9
(g10
(I0
tp268
g12
tp269
Rp270
(I1
(I1
I1
tp271
g138
I00
S'p\xbd\x17\xd0\xee\xe6\xd2?'
p272
tp273
bsbag1
(g2
g3
Ntp274
Rp275
(dp276
g7
I1
sg8
g9
(g10
(I0
tp277
g12
tp278
Rp279
(I1
(I1
I6
tp280
g138
I00
S'"\x0et\xb1\xc8\xac\x95@ M\x0fO\x15\x92H@7\x1fN\x8e\xcb\xbb{@Q%D&\x92\xc0\x9a@Lf\x1d\xc5\xb4+\x9f\xc0D\\\x12\xff\x80g\xa1\xc0'
p281
tp282
bsg24
I4
sg25
I6
sg26
(lp283
(lp284
(lp285
F0.04814446626796616
aF2.9438008782413467
aF4.905591445844488
aF-2.151156166518493
aF-2.477453929982694
aF-0.866349721688021
aa(lp286
F3.9996477913470887
aF1.3884835180872497
aF-6.752774607308578
aF-3.08763599608028
aF0.9420088162687055
aF-0.4108130530625601
aa(lp287
F2.047483197502472
aF2.0792397342020945
aF2.0742933978255187
aF2.48738219147133
aF-3.2320078714194294
aF-2.640110780100823
aa(lp288
F1.2447533632149481
aF-2.4560956797454785
aF0.09563558518449314
aF-0.525869332124318
aF-2.430574252938699
aF-3.7077487232988107
aaa(lp289
(lp290
F1.8881711660163996
aa(lp291
F0.008654168081997642
aa(lp292
F-4.616413806029209
aa(lp293
F3.0820080131397716
aa(lp294
F-1.500325409456484
aa(lp295
F-0.01315330653494158
aaasg40
g289
sg41
g284
sg42
I1
sg43
g9
(g10
(I0
tp296
g12
tp297
Rp298
(I1
(I1
I6
tp299
g138
I00
S'\x00\x00\x00\x00\x00\x00\xf0?\x00\x00\x00\x00\x00\x00\xf0?\x00\x00\x00\x00\x00\x00\xf0?\x00\x00\x00\x00\x00\x00\xf0?\x00\x00\x00\x00\x00\x00\x00\x00\x00\x00\x00\x00\x00\x00\x00\x00'
p300
tp301
bsg50
(lp302
F0.04814446626796616
aF2.9438008782413467
aF4.905591445844488
aF-2.151156166518493
aF-2.477453929982694
aF-0.866349721688021
aF3.9996477913470887
aF1.3884835180872497
aF-6.752774607308578
aF-3.08763599608028
aF0.9420088162687055
aF-0.4108130530625601
aF2.047483197502472
aF2.0792397342020945
aF2.0742933978255187
aF2.48738219147133
aF-3.2320078714194294
aF-2.640110780100823
aF1.2447533632149481
aF-2.4560956797454785
aF0.09563558518449314
aF-0.525869332124318
aF-2.430574252938699
aF-3.7077487232988107
aF1.8881711660163996
aF0.008654168081997642
aF-4.616413806029209
aF3.0820080131397716
aF-1.500325409456484
aF-0.01315330653494158
asg52
g9
(g10
(I0
tp303
g12
tp304
Rp305
(I1
(I1
I1
tp306
g138
I00
S'\xa0\x1f;\xbb\xe11\xd7?'
p307
tp308
bsbag1
(g2
g3
Ntp309
Rp310
(dp311
g7
I1
sg8
g9
(g10
(I0
tp312
g12
tp313
Rp314
(I1
(I1
I6
tp315
g138
I00
S'\xfa\x87\xac\x16\xd4\x13u@\xa8\x1a\x95\xf3\xdb\x86P@\x83\xd6\xab\xcb\xdaM\xa4@\xb2\xe4\x1a@\xe5\x9e\xa1@{&\x96\xf79\n\xa3\xc0}\x06\xd1\xad\x94r\xa6\xc0'
p316
tp317
bsg24
I4
sg25
I6
sg26
(lp318
(lp319
(lp320
F0.27261907077844855
aF3.258304975112255
aF4.947418765826511
aF-1.8310772218432267
aF-3.074113875701593
aF-1.28203375314979
aa(lp321
F4.572229565728347
aF0.9042749063819197
aF-7.050081799037758
aF-3.4380303082587385
aF-0.16477738236920939
aF-0.5600227671070892
aa(lp322
F1.9428791184374794
aF1.229351222812372
aF1.2936632737831222
aF2.4871778282216837
aF-3.2821642992826843
aF-3.5736684542234225
aa(lp323
F1.3328174985810444
aF-2.376281790977271
aF-0.26698114010627133
aF0.4499264948850692
aF-1.9504798545913717
aF-3.8328675792688562
aaa(lp324
(lp325
F2.047626209499224
aa(lp326
F-0.7143364201932253
aa(lp327
F-4.471945139704755
aa(lp328
F1.6478848673031548
aa(lp329
F-1.860743910756935
aa(lp330
F0.4969803299365923
aaasg40
g324
sg41
g319
sg42
I1
sg43
g9
(g10
(I0
tp331
g12
tp332
Rp333
(I1
(I1
I6
tp334
g138
I00
S'\x00\x00\x00\x00\x00\x00\xf0?\x00\x00\x00\x00\x00\x00\xf0?\x00\x00\x00\x00\x00\x00\xf0?\x00\x00\x00\x00\x00\x00\xf0?\x00\x00\x00\x00\x00\x00\x00\x00\x00\x00\x00\x00\x00\x00\x00\x00'
p335
tp336
bsg50
(lp337
F0.27261907077844855
aF3.258304975112255
aF4.947418765826511
aF-1.8310772218432267
aF-3.074113875701593
aF-1.28203375314979
aF4.572229565728347
aF0.9042749063819197
aF-7.050081799037758
aF-3.4380303082587385
aF-0.16477738236920939
aF-0.5600227671070892
aF1.9428791184374794
aF1.229351222812372
aF1.2936632737831222
aF2.4871778282216837
aF-3.2821642992826843
aF-3.5736684542234225
aF1.3328174985810444
aF-2.376281790977271
aF-0.26698114010627133
aF0.4499264948850692
aF-1.9504798545913717
aF-3.8328675792688562
aF2.047626209499224
aF-0.7143364201932253
aF-4.471945139704755
aF1.6478848673031548
aF-1.860743910756935
aF0.4969803299365923
asg52
g9
(g10
(I0
tp338
g12
tp339
Rp340
(I1
(I1
I1
tp341
g138
I00
S'\xbe\xcdk&2\xda\xf7\xbf'
p342
tp343
bsbag1
(g2
g3
Ntp344
Rp345
(dp346
g7
I1
sg8
g9
(g10
(I0
tp347
g12
tp348
Rp349
(I1
(I1
I6
tp350
g138
I00
S'4\xbeA{[\r\x8b@4\xec\xb9\xdf\x7f\xd1f\xc0$\x82\x010+\x08\x90@\x9cy\xa7C.\xbe\x9a@\x04\xcc\xfdy\xa5u\x98\xc0\xd9\x04\r(\xcc\x82\xa4\xc0'
p351
tp352
bsg24
I4
sg25
I6
sg26
(lp353
(lp354
(lp355
F0.3015342166859786
aF3.283273040481641
aF4.992719393026054
aF-1.993292599809931
aF-2.6253227216847335
aF-1.981388562631349
aa(lp356
F4.924330828951126
aF1.9874103674017287
aF-6.636052174551914
aF-2.8807844135028864
aF0.5766480993692182
aF-0.535973983282992
aa(lp357
F1.7790667269639684
aF1.64566683863483
aF2.0228816965178247
aF2.161209491659379
aF-2.615072548305933
aF-3.4150478143779748
aa(lp358
F1.1860713878491869
aF-2.4538356132939514
aF-0.38596395231415215
aF0.13511614135615926
aF-1.377374000676778
aF-3.974416958286726
aaa(lp359
(lp360
F1.6916440014086873
aa(lp361
F-0.7449454647282644
aa(lp362
F-4.719521177215582
aa(lp363
F2.0136853712715044
aa(lp364
F-1.6862458223119734
aa(lp365
F0.10309953360239726
aaasg40
g359
sg41
g354
sg42
I1
sg43
g9
(g10
(I0
tp366
g12
tp367
Rp368
(I1
(I1
I6
tp369
g138
I00
S'\x00\x00\x00\x00\x00\x00\xf0?N\xc6\xce\xa5Z\xf1x/\x00\x00\x00\x00\x00\x00\xf0?\x00\x00\x00\x00\x00\x00\xf0?\x00\x00\x00\x00\x00\x00\x00\x00\x00\x00\x00\x00\x00\x00\x00\x00'
p370
tp371
bsg50
(lp372
F0.3015342166859786
aF3.283273040481641
aF4.992719393026054
aF-1.993292599809931
aF-2.6253227216847335
aF-1.981388562631349
aF4.924330828951126
aF1.9874103674017287
aF-6.636052174551914
aF-2.8807844135028864
aF0.5766480993692182
aF-0.535973983282992
aF1.7790667269639684
aF1.64566683863483
aF2.0228816965178247
aF2.161209491659379
aF-2.615072548305933
aF-3.4150478143779748
aF1.1860713878491869
aF-2.4538356132939514
aF-0.38596395231415215
aF0.13511614135615926
aF-1.377374000676778
aF-3.974416958286726
aF1.6916440014086873
aF-0.7449454647282644
aF-4.719521177215582
aF2.0136853712715044
aF-1.6862458223119734
aF0.10309953360239726
asg52
g9
(g10
(I0
tp373
g12
tp374
Rp375
(I1
(I1
I1
tp376
g138
I00
S'\x92\x9c\x85/!:\xf0\xbf'
p377
tp378
bsba.