(lp0
ccopy_reg
_reconstructor
p1
(c__main__
Neural_Network
p2
c__builtin__
object
p3
Ntp4
Rp5
(dp6
S'output_layer_size'
p7
I1
sS'z2'
p8
cnumpy.core.multiarray
_reconstruct
p9
(cnumpy
ndarray
p10
(I0
tp11
S'b'
p12
tp13
Rp14
(I1
(I1
I6
tp15
cnumpy
dtype
p16
(S'f8'
p17
I0
I1
tp18
Rp19
(I3
S'<'
p20
NNNI-1
I-1
I0
tp21
bI00
S'\xac\xba\x08\xa3\xe5/d\xc0w-3e\x18\x0f\x89\xc0"\x90-\x08Ftj\xc0\xfcl\xda\xbb\xda!b\xc0d\x86*\xbd&\x01\xf6\xbf\xde\x8d\xc0bTR\x7f\xc0'
p22
tp23
bsS'input_layer_size'
p24
I4
sS'hidden_layer_size'
p25
I6
sS'weights'
p26
(lp27
(lp28
(lp29
cnumpy.core.multiarray
scalar
p30
(g19
S'\xce\xed+\xb4\xaf\xc1\xd4\xbf'
p31
tp32
Rp33
ag30
(g19
S'<[\xc6\xb8\xad\x14\x0f@'
p34
tp35
Rp36
ag30
(g19
S'\xe9fS\x80\x9a\xd8\xec?'
p37
tp38
Rp39
ag30
(g19
S'\xdf\x7fn\xe08\x81\x05\xc0'
p40
tp41
Rp42
ag30
(g19
S'K\xcdM\xcb\xa2\xe4\x0e\xc0'
p43
tp44
Rp45
ag30
(g19
S'?\xe4\xe6\xe2hC\n@'
p46
tp47
Rp48
aa(lp49
g30
(g19
S'S\x01\x9a8\xb1\xa8\xcb\xbf'
p50
tp51
Rp52
ag30
(g19
S'\xed\x96\xa4\x8c\xc5\x80\t@'
p53
tp54
Rp55
ag30
(g19
S'*\x87~8\x87e\xf9?'
p56
tp57
Rp58
ag30
(g19
S'\xae\xba\x06\xc3\x897\xfe\xbf'
p59
tp60
Rp61
ag30
(g19
S'\x8b\x11\xa9\x15*\xcd\x1b@'
p62
tp63
Rp64
ag30
(g19
S'Fj\x11Z\xd2\xf2\xff?'
p65
tp66
Rp67
aa(lp68
g30
(g19
S'\x89\xaam 3B\xe4?'
p69
tp70
Rp71
ag30
(g19
S'\xb2\x14N\xa4r5\xf4?'
p72
tp73
Rp74
ag30
(g19
S'\x84:\xce\xd4\xca\x8e\xbd\xbf'
p75
tp76
Rp77
ag30
(g19
S'\xab\x98\xae?\xdc*\xf3\xbf'
p78
tp79
Rp80
ag30
(g19
S'\xfa\x83\x8c\x0f\xaf\xe6\xf9\xbf'
p81
tp82
Rp83
ag30
(g19
S'\x86\xa4\xb1\xf2V\x88\xec?'
p84
tp85
Rp86
aa(lp87
g30
(g19
S'I>R\xce1!\xf9\xbf'
p88
tp89
Rp90
ag30
(g19
S"\x04+M'\xfd~\xf1\xbf"
p91
tp92
Rp93
ag30
(g19
S'\xd8G\x10\x9e[\x8b\xad?'
p94
tp95
Rp96
ag30
(g19
S'\x93\x94\xb8:_\xef\t\xc0'
p97
tp98
Rp99
ag30
(g19
S'p2\xd8\xba\x18\xc4\x86?'
p100
tp101
Rp102
ag30
(g19
S'\xfbB\xbfMv3\xa1\xbf'
p103
tp104
Rp105
aaa(lp106
(lp107
g30
(g19
S'\xc1\xc2R\r\x9fg\x03\xc0'
p108
tp109
Rp110
aa(lp111
g30
(g19
S'\xcc\xbe\x9d\xcfl\xca\xf5?'
p112
tp113
Rp114
aa(lp115
g30
(g19
S'bt\x9b\x7f\xddE\xe3?'
p116
tp117
Rp118
aa(lp119
g30
(g19
S'\x0e\x0c_\x83Sj\xf3\xbf'
p120
tp121
Rp122
aa(lp123
g30
(g19
S'\x12\xe0\x0fK\x8en\xfe?'
p124
tp125
Rp126
aa(lp127
g30
(g19
S'\xbf\x90\xd2\xf0\x82@\xf1\xbf'
p128
tp129
Rp130
aaasS'W2'
p131
g106
sS'W1'
p132
g28
sS'fitness'
p133
I708
sS'a2'
p134
g9
(g10
(I0
tp135
g12
tp136
Rp137
(I1
(I1
I6
tp138
g19
I00
S'=\x81/\xcb\xc1\x1a`1\x00\x00\x00\x00\x00\x00\x00\x00\t\x84(v9\x96\xd9,+w-<)u\xda2\x8f\xc7!8\x88\xd3\xc9?\xbc"R\xa5p\xfe\xbf\x12'
p139
tp140
bsS'chromosome'
p141
(lp142
g33
ag36
ag39
ag42
ag45
ag48
ag52
ag55
ag58
ag61
ag64
ag67
ag71
ag74
ag77
ag80
ag83
ag86
ag90
ag93
ag96
ag99
ag102
ag105
ag110
ag114
ag118
ag122
ag126
ag130
asS'z3'
p143
g9
(g10
(I0
tp144
g12
tp145
Rp146
(I1
(I1
I1
tp147
g19
I00
S'\x8d\xaf!\xb0\x89\x8f\xd8?'
p148
tp149
bsbag1
(g2
g3
Ntp150
Rp151
(dp152
g7
I1
sg8
g9
(g10
(I0
tp153
g12
tp154
Rp155
(I1
(I1
I6
tp156
g19
I00
S'\xa4\xee\rK\x1f\x0eS@?P\x1c\x80R \x81\xc0\xc6Wj7*\x1bs\xc0t\t-Uh\xa2n@C\xe8\xf5\xbb\xdc\x9b\x94\xc0\xcdz\xcf\xb9\xef\xc2t\xc0'
p157
tp158
bsg24
I4
sg25
I6
sg26
(lp159
(lp160
(lp161
g33
ag30
(g19
S'\xe2\x9e\xb2\xa5\x7fU\x11@'
p162
tp163
Rp164
ag39
ag42
ag45
ag30
(g19
S'\xdc\x0c\x0c\x99\xd6\x91\x0e@'
p165
tp166
Rp167
aa(lp168
g52
ag30
(g19
S'\x8bv\xc4@p4\n@'
p169
tp170
Rp171
ag58
ag61
ag64
ag67
aa(lp172
g71
ag74
ag77
ag30
(g19
S'\xf0S\xa3x\xa5\xc1\xf1\xbf'
p173
tp174
Rp175
ag30
(g19
S'\x89\xac\xd0\xe9\x04!\xf5\xbf'
p176
tp177
Rp178
ag86
aa(lp179
g90
ag30
(g19
S't\xc9\x9e\xf9/\xc1\xea\xbf'
p180
tp181
Rp182
ag96
ag99
ag102
ag105
aaa(lp183
(lp184
g30
(g19
S'\xdd\xef\x9e\xe6\xb4^\x04\xc0'
p185
tp186
Rp187
aa(lp188
g30
(g19
S'\xf0\xcd\x8a\xbd#\x13\xf3?'
p189
tp190
Rp191
aa(lp192
g118
aa(lp193
g122
aa(lp194
g30
(g19
S'A+61\xa6\x12\x01@'
p195
tp196
Rp197
aa(lp198
g30
(g19
S'(\x0fCA\x90\xf8\xee\xbf'
p199
tp200
Rp201
aaasg131
g183
sg132
g160
sg133
I1804303
sg134
g9
(g10
(I0
tp202
g12
tp203
Rp204
(I1
(I1
I6
tp205
g19
I00
S'\x00\x00\x00\x00\x00\x00\xf0?\x9a\xcd\x83\xad\x8aR\x84\x0eML1\xeb\x96^_$\x00\x00\x00\x00\x00\x00\xf0?\x00\x00\x00\x00\x00\x00\x00\x00\xc4F\xca*\xd0\x1a\xfb!'
p206
tp207
bsg141
(lp208
g33
ag164
ag39
ag42
ag45
ag167
ag52
ag171
ag58
ag61
ag64
ag67
ag71
ag74
ag77
ag175
ag178
ag86
ag90
ag182
ag96
ag99
ag102
ag105
ag187
ag191
ag118
ag122
ag197
ag201
asg143
g9
(g10
(I0
tp209
g12
tp210
Rp211
(I1
(I1
I1
tp212
g19
I00
S'\xe4uN\xa8\xde\x13\x0e\xc0'
p213
tp214
bsbag1
(g2
g3
Ntp215
Rp216
(dp217
g7
I1
sg24
I4
sg25
I6
sg26
(lp218
(lp219
(lp220
g30
(g19
S'\x16\x8e\xaa\x9e\x0c\x92\xe1\xbf'
p221
tp222
Rp223
ag30
(g19
S'>8PTk\xda\x10@'
p224
tp225
Rp226
ag30
(g19
S'\x80\xccI\xc5\xe4\xce\xf7?'
p227
tp228
Rp229
ag30
(g19
S'\x95\n\x00g(\xd5\x03\xc0'
p230
tp231
Rp232
ag30
(g19
S'F\x80\xc2D,A\x0f\xc0'
p233
tp234
Rp235
ag30
(g19
S'TC\x18-\xf4\x08\n@'
p236
tp237
Rp238
aa(lp239
g30
(g19
S"\x8c\xc5\xc2\x89\xd5'\xdf\xbf"
p240
tp241
Rp242
ag30
(g19
S'x\x96\xd9\xf4d0\x08@'
p243
tp244
Rp245
ag30
(g19
S'\x9a\xca`\x1b\x89\xce\xfb?'
p246
tp247
Rp248
ag30
(g19
S'\x10\xf2\x94\xa8!0\x02\xc0'
p249
tp250
Rp251
ag30
(g19
S'u{M\x11+\xf5\x1c@'
p252
tp253
Rp254
ag30
(g19
S'\xd7y\xa5\x82\xbdM\x00@'
p255
tp256
Rp257
aa(lp258
g30
(g19
S'\x9a\x1dV\xa8t\xaa\xeb?'
p259
tp260
Rp261
ag30
(g19
S'5n\xc4\xd1\xd5s\xf3?'
p262
tp263
Rp264
ag30
(g19
S'8\x17C\xd4\xa1\x11\xe5\xbf'
p265
tp266
Rp267
ag30
(g19
S'0\xfd]\xf0\xf7\xae\xf5\xbf'
p268
tp269
Rp270
ag30
(g19
S'\xf1#\xb1^dX\xfe\xbf'
p271
tp272
Rp273
ag30
(g19
S'_\xd0\xfb\xbb8R\xf8?'
p274
tp275
Rp276
aa(lp277
g30
(g19
S'5\x8d\xb1R\x82\x90\xff\xbf'
p278
tp279
Rp280
ag30
(g19
S'\xdf@\xe5k\xb5\x00\xf3\xbf'
p281
tp282
Rp283
ag96
ag30
(g19
S'\xa8]\x902\xf2,\n\xc0'
p284
tp285
Rp286
ag30
(g19
S'\x19|\xa9\xf5\xc4\xaa\xb8?'
p287
tp288
Rp289
ag30
(g19
S'\x1a\xa2{\xfa\xec\x94\xc4\xbf'
p290
tp291
Rp292
aaa(lp293
(lp294
g30
(g19
S'\xe8\xc2Z\x17;B\x03\xc0'
p295
tp296
Rp297
aa(lp298
g191
aa(lp299
g30
(g19
S'\xaf\xa5\xef\xd3E\x02\xe4?'
p300
tp301
Rp302
aa(lp303
g30
(g19
S'\xbcd\xf6\x1b\xc8\x9c\xf9\xbf'
p304
tp305
Rp306
aa(lp307
g30
(g19
S't\xcd\x99\xa6\xb7a\x00@'
p308
tp309
Rp310
aa(lp311
g30
(g19
S'\xf8\xa1Y`\xf4@\xee\xbf'
p312
tp313
Rp314
aaasg131
g293
sg132
g219
sg133
I1
sg141
(lp315
g223
ag226
ag229
ag232
ag235
ag238
ag242
ag245
ag248
ag251
ag254
ag257
ag261
ag264
ag267
ag270
ag273
ag276
ag280
ag283
ag96
ag286
ag289
ag292
ag297
ag191
ag302
ag306
ag310
ag314
asbag1
(g2
g3
Ntp316
Rp317
(dp318
g7
I1
sg24
I4
sg25
I6
sg26
(lp319
(lp320
(lp321
g223
ag30
(g19
S'\xfc\xab\xbcq\xecc\x11@'
p322
tp323
Rp324
ag30
(g19
S'D;\xa2"D\xb5\xf3?'
p325
tp326
Rp327
ag30
(g19
S'\x01\xb0\xa6\xfd\xf1H\x02\xc0'
p328
tp329
Rp330
ag235
ag238
aa(lp331
g30
(g19
S'\xe4\x89\xce\xf36\x8e\xd1\xbf'
p332
tp333
Rp334
ag245
ag30
(g19
S'8G\xd1\xa2*\xaf\xfb?'
p335
tp336
Rp337
ag30
(g19
S'\xe5-pGD/\x00\xc0'
p338
tp339
Rp340
ag64
ag30
(g19
S'\x19\xbf(\x13\x9c\xbd\xfc?'
p341
tp342
Rp343
aa(lp344
g30
(g19
S'\xec\xea\x15\xbb\xdf|\xed?'
p345
tp346
Rp347
ag264
ag30
(g19
S'1\xdf\x92\xd9\xd4i\xd7\xbf'
p348
tp349
Rp350
ag30
(g19
S'\xc9\xe2\x90\x9ai\xb9\xf6\xbf'
p351
tp352
Rp353
ag30
(g19
S'N\xca3R\xb4\xe3\xfb\xbf'
p354
tp355
Rp356
ag30
(g19
S'N>\xa9}\xe3\n\xf4?'
p357
tp358
Rp359
aa(lp360
g30
(g19
S'\xc4\x8b||\xc2D\xfe\xbf'
p361
tp362
Rp363
ag30
(g19
S'\x00\xde\xfe\xe5\x15r\xf0\xbf'
p364
tp365
Rp366
ag96
ag30
(g19
S'\x02*\x8c\xf6\xb35\t\xc0'
p367
tp368
Rp369
ag289
ag30
(g19
S'd\xd0\xb7s~i\xb6\xbf'
p370
tp371
Rp372
aaa(lp373
(lp374
g187
aa(lp375
g30
(g19
S'\xd0\xec\xebC\xb6 \xf9?'
p376
tp377
Rp378
aa(lp379
g30
(g19
S'H7\x18\xb2R\x90\xe2?'
p380
tp381
Rp382
aa(lp383
g306
aa(lp384
g30
(g19
S'\xd9\x9e\x91C\xcb\x9a\x02@'
p385
tp386
Rp387
aa(lp388
g30
(g19
S'\xef+\xfby\xd1+\xe9\xbf'
p389
tp390
Rp391
aaasg131
g373
sg132
g320
sg133
I1
sg141
(lp392
g223
ag324
ag327
ag330
ag235
ag238
ag334
ag245
ag337
ag340
ag64
ag343
ag347
ag264
ag350
ag353
ag356
ag359
ag363
ag366
ag96
ag369
ag289
ag372
ag187
ag378
ag382
ag306
ag387
ag391
asbag1
(g2
g3
Ntp393
Rp394
(dp395
g7
I1
sg24
I4
sg25
I6
sg26
(lp396
(lp397
(lp398
g223
ag30
(g19
S'\xa2\x9e\x8e\xd6\x87H\x11@'
p399
tp400
Rp401
ag229
ag232
ag235
ag30
(g19
S'\xd5\r0\x98\x937\x0b@'
p402
tp403
Rp404
aa(lp405
g242
ag245
ag248
ag30
(g19
S'\xd6\xe3!\x00\xda\x1f\x01\xc0'
p406
tp407
Rp408
ag64
ag30
(g19
S'\xbd/n\x92\xf2h\xfa?'
p409
tp410
Rp411
aa(lp412
g261
ag30
(g19
S'\x81\x1e\xc7\x9f\xd1\xdc\xf0?'
p413
tp414
Rp415
ag30
(g19
S'\x0f\xa0\x1b\xf1\x8f\xd2\xeb\xbf'
p416
tp417
Rp418
ag270
ag273
ag276
aa(lp419
g30
(g19
S'\x94\xd8\xc7\xb2\r4\xfc\xbf'
p420
tp421
Rp422
ag366
ag96
ag369
ag289
ag372
aaa(lp423
(lp424
g30
(g19
S'vO\x9b\x8b\xfb[\x01\xc0'
p425
tp426
Rp427
aa(lp428
g191
aa(lp429
g302
aa(lp430
g306
aa(lp431
g310
aa(lp432
g314
aaasg131
g423
sg132
g397
sg133
I1
sg141
(lp433
g223
ag401
ag229
ag232
ag235
ag404
ag242
ag245
ag248
ag408
ag64
ag411
ag261
ag415
ag418
ag270
ag273
ag276
ag422
ag366
ag96
ag369
ag289
ag372
ag427
ag191
ag302
ag306
ag310
ag314
asbag1
(g2
g3
Ntp434
Rp435
(dp436
g7
I1
sg24
I4
sg25
I6
sg26
(lp437
(lp438
(lp439
g223
ag401
ag30
(g19
S'\xe5o\x0b\x1c\xef9\xf3?'
p440
tp441
Rp442
ag232
ag235
ag238
aa(lp443
g242
ag245
ag248
ag30
(g19
S'F\x19\xc0 \xf5Y\x02\xc0'
p444
tp445
Rp446
ag64
ag30
(g19
S'\x19\xe1fO\xa3\x87\xff?'
p447
tp448
Rp449
aa(lp450
g261
ag264
ag30
(g19
S'\xd1\xedL\x82\x176\xed\xbf'
p451
tp452
Rp453
ag270
ag273
ag30
(g19
S'\xf5\xc4\xf0au\x0f\xf5?'
p454
tp455
Rp456
aa(lp457
g280
ag366
ag96
ag369
ag289
ag372
aaa(lp458
(lp459
g297
aa(lp460
g191
aa(lp461
g302
aa(lp462
g306
aa(lp463
g30
(g19
S'\x94DbN\xac\x87\x02@'
p464
tp465
Rp466
aa(lp467
g314
aaasg131
g458
sg132
g438
sg133
I1
sg141
(lp468
g223
ag401
ag442
ag232
ag235
ag238
ag242
ag245
ag248
ag446
ag64
ag449
ag261
ag264
ag453
ag270
ag273
ag456
ag280
ag366
ag96
ag369
ag289
ag372
ag297
ag191
ag302
ag306
ag466
ag314
asbag1
(g2
g3
Ntp469
Rp470
(dp471
g7
I1
sg24
I4
sg25
I6
sg26
(lp472
(lp473
(lp474
g223
ag30
(g19
S'oB\x18\xc3\xa2\xdd\x10@'
p475
tp476
Rp477
ag30
(g19
S'zr\x94\x8a\xcd\x06\xf3?'
p478
tp479
Rp480
ag30
(g19
S'M\x84\xa0\x02\x91\x97\x01\xc0'
p481
tp482
Rp483
ag30
(g19
S"'v\xca\x9aT\xf7\x0c\xc0"
p484
tp485
Rp486
ag30
(g19
S'&\x88\n\x033V\r@'
p487
tp488
Rp489
aa(lp490
g30
(g19
S'\xb8\x11h-:\xdb\xcd\xbf'
p491
tp492
Rp493
ag55
ag30
(g19
S'J-z\xf7\xae\xbc\xfa?'
p494
tp495
Rp496
ag251
ag64
ag67
aa(lp497
g71
ag30
(g19
S'\x16\x030i{\xff\xf5?'
p498
tp499
Rp500
ag77
ag30
(g19
S'\x04\xe3K\xed&-\xf7\xbf'
p501
tp502
Rp503
ag30
(g19
S'\x00\x8e`\x99\x9e\xa8\xf9\xbf'
p504
tp505
Rp506
ag86
aa(lp507
g90
ag30
(g19
S'|\x8bWQ\x11\x8f\xe9\xbf'
p508
tp509
Rp510
ag30
(g19
S'\xa6QS9\x92\xef\xc2?'
p511
tp512
Rp513
ag30
(g19
S'd8M\xe7\xbb-\x0c\xc0'
p514
tp515
Rp516
ag30
(g19
S'(\xec\x90\x89\xd5\xe6\xc2?'
p517
tp518
Rp519
ag30
(g19
S'\x14\x89\xdf\x0b\xf9\xac\xbe?'
p520
tp521
Rp522
aaa(lp523
(lp524
g187
aa(lp525
g191
aa(lp526
g382
aa(lp527
g306
aa(lp528
g30
(g19
S'sL\xbe\xcc2&\x04@'
p529
tp530
Rp531
aa(lp532
g30
(g19
S'\xba\xfb+3s1\xef\xbf'
p533
tp534
Rp535
aaasg131
g523
sg132
g473
sg133
I1
sg141
(lp536
g223
ag477
ag480
ag483
ag486
ag489
ag493
ag55
ag496
ag251
ag64
ag67
ag71
ag500
ag77
ag503
ag506
ag86
ag90
ag510
ag513
ag516
ag519
ag522
ag187
ag191
ag382
ag306
ag531
ag535
asbag1
(g2
g3
Ntp537
Rp538
(dp539
g7
I1
sg24
I4
sg25
I6
sg26
(lp540
(lp541
(lp542
g223
ag477
ag480
ag483
ag486
ag30
(g19
S'o[\xbe\x19\xfe\xf1\x0b@'
p543
tp544
Rp545
aa(lp546
g493
ag55
ag496
ag251
ag64
ag67
aa(lp547
g71
ag500
ag77
ag80
ag83
ag30
(g19
S'\x8d\xa0l\xaf\xd7\xbf\xe3?'
p548
tp549
Rp550
aa(lp551
g90
ag510
ag30
(g19
S'>q\x1c\xe05\xfc\xc1\xbf'
p552
tp553
Rp554
ag99
ag30
(g19
S'\xb9!\xdd\x8c\xd2X\xdb?'
p555
tp556
Rp557
ag522
aaa(lp558
(lp559
g187
aa(lp560
g191
aa(lp561
g382
aa(lp562
g306
aa(lp563
g30
(g19
S'\xf6Y\x06+\xb5\xfa\x02@'
p564
tp565
Rp566
aa(lp567
g535
aaasg131
g558
sg132
g541
sg133
I1
sg141
(lp568
g223
ag477
ag480
ag483
ag486
ag545
ag493
ag55
ag496
ag251
ag64
ag67
ag71
ag500
ag77
ag80
ag83
ag550
ag90
ag510
ag554
ag99
ag557
ag522
ag187
ag191
ag382
ag306
ag566
ag535
asbag1
(g2
g3
Ntp569
Rp570
(dp571
g7
I1
sg24
I4
sg25
I6
sg26
(lp572
(lp573
(lp574
g30
(g19
S'\xc5\xd5\x00h\x1e\x12\xdb\xbf'
p575
tp576
Rp577
ag30
(g19
S'\xf8x\xcd\x9d\xb0\xee\x10@'
p578
tp579
Rp580
ag30
(g19
S'\xd1\x05\x87\xcb>U\xf5?'
p581
tp582
Rp583
ag30
(g19
S'\xf8"\x01\xf0\x80\x8c\x03\xc0'
p584
tp585
Rp586
ag30
(g19
S'V0^\xfd\xbe\xf1\x0f\xc0'
p587
tp588
Rp589
ag238
aa(lp590
g242
ag245
ag248
ag251
ag64
ag30
(g19
S' \xf7\xbe>\xe3\xc3\x00@'
p591
tp592
Rp593
aa(lp594
g261
ag264
ag30
(g19
S'\xdd\x8f\n\xc4\x980\xe4\xbf'
p595
tp596
Rp597
ag270
ag273
ag276
aa(lp598
g280
ag366
ag30
(g19
S'\xe8i\x1fN5\xa1\xd2?'
p599
tp600
Rp601
ag369
ag289
ag372
aaa(lp602
(lp603
g30
(g19
S'\x12\xf6\xee2<\xff\x02\xc0'
p604
tp605
Rp606
aa(lp607
g191
aa(lp608
g302
aa(lp609
g30
(g19
S'\xd9\r\n\xe8}\x16\xfb\xbf'
p610
tp611
Rp612
aa(lp613
g310
aa(lp614
g314
aaasg131
g602
sg132
g573
sg133
I1
sg141
(lp615
g577
ag580
ag583
ag586
ag589
ag238
ag242
ag245
ag248
ag251
ag64
ag593
ag261
ag264
ag597
ag270
ag273
ag276
ag280
ag366
ag601
ag369
ag289
ag372
ag606
ag191
ag302
ag612
ag310
ag314
asbag1
(g2
g3
Ntp616
Rp617
(dp618
g7
I1
sg24
I4
sg25
I6
sg26
(lp619
(lp620
(lp621
g223
ag401
ag229
ag232
ag30
(g19
S'\xf9\x15\x11E\xb2\xae\x10\xc0'
p622
tp623
Rp624
ag238
aa(lp625
g242
ag30
(g19
S'\xda\xca,\x0e\xb2Y\t@'
p626
tp627
Rp628
ag30
(g19
S'\\\xbb\x8b\x10\x01\x8c\xfa?'
p629
tp630
Rp631
ag251
ag64
ag343
aa(lp632
g261
ag264
ag597
ag30
(g19
S'r+\x13f\x94\xa7\xf1\xbf'
p633
tp634
Rp635
ag30
(g19
S'\xf5\x03\x05\x00_(\x00\xc0'
p636
tp637
Rp638
ag276
aa(lp639
g280
ag366
ag96
ag369
ag289
ag372
aaa(lp640
(lp641
g297
aa(lp642
g191
aa(lp643
g302
aa(lp644
g30
(g19
S'|b\xa2\xd00\xd4\xfd\xbf'
p645
tp646
Rp647
aa(lp648
g310
aa(lp649
g314
aaasg131
g640
sg132
g620
sg133
I1
sg141
(lp650
g223
ag401
ag229
ag232
ag624
ag238
ag242
ag628
ag631
ag251
ag64
ag343
ag261
ag264
ag597
ag635
ag638
ag276
ag280
ag366
ag96
ag369
ag289
ag372
ag297
ag191
ag302
ag647
ag310
ag314
asba.