(lp0
ccopy_reg
_reconstructor
p1
(c__main__
Neural_Network
p2
c__builtin__
object
p3
Ntp4
Rp5
(dp6
S'output_layer_size'
p7
I1
sS'z2'
p8
cnumpy.core.multiarray
_reconstruct
p9
(cnumpy
ndarray
p10
(I0
tp11
S'b'
p12
tp13
Rp14
(I1
(I1
I6
tp15
cnumpy
dtype
p16
(S'f8'
p17
I0
I1
tp18
Rp19
(I3
S'<'
p20
NNNI-1
I-1
I0
tp21
bI00
S'\xadR7\xdc\xc3q\x85\xc0\xe96\x0b\xb4\x10?}\xc0\x82\xa0>\xc1-\xd9\x8b@Fy\xee\xf4T\xd6\x82@\xc5\x8er\xe6\x13\xd4]@% \x950\x85\x95Y@'
p22
tp23
bsS'input_layer_size'
p24
I4
sS'hidden_layer_size'
p25
I6
sS'weights'
p26
(lp27
(lp28
(lp29
F-0.4083555399458262
aF2.4196145647699883
aF4.484496797861269
aF-1.9162761036269313
aF-3.419966493538168
aF-0.712387232562623
aa(lp30
F4.3884128842734045
aF1.9491983220328613
aF-6.466537372491478
aF-3.412778669675471
aF-0.24186153571007052
aF-0.8722930599372696
aa(lp31
F1.7643632197000911
aF0.5972698618898955
aF2.3037063101160413
aF1.7062233650904537
aF-3.0462053040865267
aF-3.522544157538127
aa(lp32
F1.5333184862162486
aF-2.463556249445732
aF0.01405913653674331
aF0.5661834356956538
aF-2.236894673108697
aF-3.9251891801405754
aaa(lp33
(lp34
F1.9271721076992723
aa(lp35
F-0.5938393904240353
aa(lp36
F-4.915402235879751
aa(lp37
F2.8492992189624595
aa(lp38
F-1.6054025529808351
aa(lp39
F0.02085694805537916
aaasS'W2'
p40
g33
sS'W1'
p41
g28
sS'fitness'
p42
I555
sS'a2'
p43
g9
(g10
(I0
tp44
g12
tp45
Rp46
(I1
(I1
I6
tp47
g19
I00
S'\x12\\\xb9\x95\xbe\xd7\x0f\x02\xae\xdb\x04XY\xeb\xbd\x15\x00\x00\x00\x00\x00\x00\xf0?\x00\x00\x00\x00\x00\x00\xf0?\x00\x00\x00\x00\x00\x00\xf0?\x00\x00\x00\x00\x00\x00\xf0?'
p48
tp49
bsS'chromosome'
p50
(lp51
F-0.4083555399458262
aF2.4196145647699883
aF4.484496797861269
aF-1.9162761036269313
aF-3.419966493538168
aF-0.712387232562623
aF4.3884128842734045
aF1.9491983220328613
aF-6.466537372491478
aF-3.412778669675471
aF-0.24186153571007052
aF-0.8722930599372696
aF1.7643632197000911
aF0.5972698618898955
aF2.3037063101160413
aF1.7062233650904537
aF-3.0462053040865267
aF-3.522544157538127
aF1.5333184862162486
aF-2.463556249445732
aF0.01405913653674331
aF0.5661834356956538
aF-2.236894673108697
aF-3.9251891801405754
aF1.9271721076992723
aF-0.5938393904240353
aF-4.915402235879751
aF2.8492992189624595
aF-1.6054025529808351
aF0.02085694805537916
asS'z3'
p52
g9
(g10
(I0
tp53
g12
tp54
Rp55
(I1
(I1
I1
tp56
g19
I00
S'=\x04\xc0C\x874\r\xc0'
p57
tp58
bsbag1
(g2
g3
Ntp59
Rp60
(dp61
g7
I1
sg8
g9
(g10
(I0
tp62
g12
tp63
Rp64
(I1
(I1
I6
tp65
g19
I00
S'*]\x1a\xc3Vri@\xb8`\xd3_E\x15\x8b\xc0[l\xa0\xe0REI\xc0\xca\x00\xfa\xee\x12\xf2\x84@F\xb8\x02x\xeazu\xc0\x1e"\x9d=_\x16\x87\xc0'
p66
tp67
bsg24
I4
sg25
I6
sg26
(lp68
(lp69
(lp70
F-0.4047077871943623
aF2.516780404612401
aF4.484496797861269
aF-2.0557572255869063
aF-2.7954678314259906
aF-0.9739855040632549
aa(lp71
F4.374827989581286
aF1.8151607685545954
aF-6.466537372491478
aF-3.592384836229107
aF0.27892121525745367
aF-0.7230880349286436
aa(lp72
F2.0666808354756103
aF0.8719370449111348
aF2.2945718085170146
aF1.7069047620061895
aF-3.1426784904039295
aF-3.522544157538127
aa(lp73
F1.407145675927713
aF-2.463556249445732
aF0.01405913653674331
aF0.3611431639281745
aF-2.4927209118532305
aF-3.4593461590449177
aaa(lp74
(lp75
F1.553489046261694
aa(lp76
F-0.5938393904240353
aa(lp77
F-4.947477393310664
aa(lp78
F2.4669611158276243
aa(lp79
F-1.5086736526659608
aa(lp80
F0.3155651124620009
aaasg40
g74
sg41
g69
sg42
I4488
sg43
g9
(g10
(I0
tp81
g12
tp82
Rp83
(I1
(I1
I6
tp84
g19
I00
S'\x00\x00\x00\x00\x00\x00\xf0?\x00\x00\x00\x00\x00\x00\x00\x00S\xfd}#A\xf5`;\x00\x00\x00\x00\x00\x00\xf0?{P\x89\xe9~\x04\xf2 \x00\x00\x00\x00\x00\x00\x00\x00'
p85
tp86
bsg50
(lp87
F-0.4047077871943623
aF2.516780404612401
aF4.484496797861269
aF-2.0557572255869063
aF-2.7954678314259906
aF-0.9739855040632549
aF4.374827989581286
aF1.8151607685545954
aF-6.466537372491478
aF-3.592384836229107
aF0.27892121525745367
aF-0.7230880349286436
aF2.0666808354756103
aF0.8719370449111348
aF2.2945718085170146
aF1.7069047620061895
aF-3.1426784904039295
aF-3.522544157538127
aF1.407145675927713
aF-2.463556249445732
aF0.01405913653674331
aF0.3611431639281745
aF-2.4927209118532305
aF-3.4593461590449177
aF1.553489046261694
aF-0.5938393904240353
aF-4.947477393310664
aF2.4669611158276243
aF-1.5086736526659608
aF0.3155651124620009
asg52
g9
(g10
(I0
tp88
g12
tp89
Rp90
(I1
(I1
I1
tp91
g19
I00
S'p|%\xe3\xf0\x14\x10@'
p92
tp93
bsbag1
(g2
g3
Ntp94
Rp95
(dp96
g7
I1
sg8
g9
(g10
(I0
tp97
g12
tp98
Rp99
(I1
(I1
I6
tp100
g19
I00
S'\xcep\x96I&\x94t\xc03&\xc0@f\xe1\x88\xc0\xcb\xc4d\xa9\xf7\x9c\x92@N*\xa5\xae\xef\xe1\x8a@G&\xef\x8e<\x06\x81\xc0\x10Mm\xc4\xd2\xe9\x89\xc0'
p101
tp102
bsg24
I4
sg25
I6
sg26
(lp103
(lp104
(lp105
F-0.4083555399458262
aF2.4196145647699883
aF4.484496797861269
aF-1.785405193757056
aF-3.160287723026201
aF-0.712387232562623
aa(lp106
F4.3884128842734045
aF1.9257332240149638
aF-6.557715512155386
aF-3.6027578348520772
aF-0.18374187108003354
aF-0.8722930599372696
aa(lp107
F1.8791422949888819
aF0.5972698618898955
aF2.3037063101160413
aF1.7062233650904537
aF-3.0462053040865267
aF-3.522544157538127
aa(lp108
F1.5333184862162486
aF-2.463556249445732
aF0.26132387334266055
aF0.5661834356956538
aF-2.4967831884847707
aF-4.198639697772034
aaa(lp109
(lp110
F1.9271721076992723
aa(lp111
F-0.5938393904240353
aa(lp112
F-4.915402235879751
aa(lp113
F3.0225052344097034
aa(lp114
F-1.6054025529808351
aa(lp115
F0.13494410219023772
aaasg40
g109
sg41
g104
sg42
I169
sg43
g9
(g10
(I0
tp116
g12
tp117
Rp118
(I1
(I1
I6
tp119
g19
I00
S'\xa6_ql\x95\x8a?"\x00\x00\x00\x00\x00\x00\x00\x00\x00\x00\x00\x00\x00\x00\xf0?\x00\x00\x00\x00\x00\x00\xf0?l}\x12\xb9$\x8e\xd0\x0e\x00\x00\x00\x00\x00\x00\x00\x00'
p120
tp121
bsg50
(lp122
F-0.4083555399458262
aF2.4196145647699883
aF4.484496797861269
aF-1.785405193757056
aF-3.160287723026201
aF-0.712387232562623
aF4.3884128842734045
aF1.9257332240149638
aF-6.557715512155386
aF-3.6027578348520772
aF-0.18374187108003354
aF-0.8722930599372696
aF1.8791422949888819
aF0.5972698618898955
aF2.3037063101160413
aF1.7062233650904537
aF-3.0462053040865267
aF-3.522544157538127
aF1.5333184862162486
aF-2.463556249445732
aF0.26132387334266055
aF0.5661834356956538
aF-2.4967831884847707
aF-4.198639697772034
aF1.9271721076992723
aF-0.5938393904240353
aF-4.915402235879751
aF3.0225052344097034
aF-1.6054025529808351
aF0.13494410219023772
asg52
g9
(g10
(I0
tp123
g12
tp124
Rp125
(I1
(I1
I1
tp126
g19
I00
S'B*\xc0]NI\xfe\xbf'
p127
tp128
bsbag1
(g2
g3
Ntp129
Rp130
(dp131
g7
I1
sg8
g9
(g10
(I0
tp132
g12
tp133
Rp134
(I1
(I1
I6
tp135
g19
I00
S'w\xac\r\xe6\x15A\x80@\xbd\x9d\x18\x98\xab\x15\x95\xc0\x8e\x18.k\x8a\\F\xc0\xfd\xbaVA\xddC\x88@8\x04\xff%\x89\\\x82\xc0\x00\xdf\xea#\x04?\x99\xc0'
p136
tp137
bsg24
I4
sg25
I6
sg26
(lp138
(lp139
(lp140
F-0.3689208080447842
aF2.4196145647699883
aF4.484496797861269
aF-1.7434662359544815
aF-3.591789567467296
aF-0.712387232562623
aa(lp141
F4.3884128842734045
aF1.8095564690301364
aF-6.466537372491478
aF-3.6027578348520772
aF-0.13299138620112516
aF-0.8722930599372696
aa(lp142
F1.9628974941731407
aF0.5972698618898955
aF2.600434508352719
aF1.7062233650904537
aF-3.116350168388842
aF-3.522544157538127
aa(lp143
F1.5333184862162486
aF-2.463556249445732
aF0.01405913653674331
aF0.5661834356956538
aF-2.231921108083553
aF-3.9251891801405754
aaa(lp144
(lp145
F1.9271721076992723
aa(lp146
F-0.5938393904240353
aa(lp147
F-4.915402235879751
aa(lp148
F2.8492992189624595
aa(lp149
F-1.6054025529808351
aa(lp150
F0.09903754320473668
aaasg40
g144
sg41
g139
sg42
I1968
sg43
g9
(g10
(I0
tp151
g12
tp152
Rp153
(I1
(I1
I6
tp154
g19
I00
S'\x00\x00\x00\x00\x00\x00\xf0?\x00\x00\x00\x00\x00\x00\x00\x00\x07\xb9\x0ej|J\xe6;\x00\x00\x00\x00\x00\x00\xf0?\xf1}[IW\xf9\xf3\n\x00\x00\x00\x00\x00\x00\x00\x00'
p155
tp156
bsg50
(lp157
F-0.3689208080447842
aF2.4196145647699883
aF4.484496797861269
aF-1.7434662359544815
aF-3.591789567467296
aF-0.712387232562623
aF4.3884128842734045
aF1.8095564690301364
aF-6.466537372491478
aF-3.6027578348520772
aF-0.13299138620112516
aF-0.8722930599372696
aF1.9628974941731407
aF0.5972698618898955
aF2.600434508352719
aF1.7062233650904537
aF-3.116350168388842
aF-3.522544157538127
aF1.5333184862162486
aF-2.463556249445732
aF0.01405913653674331
aF0.5661834356956538
aF-2.231921108083553
aF-3.9251891801405754
aF1.9271721076992723
aF-0.5938393904240353
aF-4.915402235879751
aF2.8492992189624595
aF-1.6054025529808351
aF0.09903754320473668
asg52
g9
(g10
(I0
tp158
g12
tp159
Rp160
(I1
(I1
I1
tp161
g19
I00
S'\xec,\xa9L\x1b\x1b\x13@'
p162
tp163
bsbag1
(g2
g3
Ntp164
Rp165
(dp166
g7
I1
sg8
g9
(g10
(I0
tp167
g12
tp168
Rp169
(I1
(I1
I6
tp170
g19
I00
S'\xead\xab;\xbfa\x96@(\x02)\x10\xf1T\x96\xc0\x00w\x9b\xdd\x0c\x03\x16@am\xa9\xd5\xb0\xe3\x91@ \x95\x168\xb3T\x98\xc0\x900\x9c\xb2,\x86\xa5\xc0'
p171
tp172
bsg24
I4
sg25
I6
sg26
(lp173
(lp174
(lp175
F-0.5185859754586009
aF2.66464800565541
aF4.20195129176995
aF-1.8687321190292698
aF-3.0675037290462606
aF-0.9173228697895192
aa(lp176
F4.3884128842734045
aF1.5496166912984735
aF-6.238496712729001
aF-3.3647049322591562
aF-0.18177842253685705
aF-0.7230880349286436
aa(lp177
F2.0666808354756103
aF0.8719370449111348
aF2.2378827371448944
aF1.7069047620061895
aF-3.0462053040865267
aF-3.522544157538127
aa(lp178
F1.407145675927713
aF-2.463556249445732
aF0.2799753849164917
aF0.5322917826379864
aF-2.4927209118532305
aF-3.8020016151609384
aaa(lp179
(lp180
F1.553489046261694
aa(lp181
F-0.5938393904240353
aa(lp182
F-4.947477393310664
aa(lp183
F2.4669611158276243
aa(lp184
F-1.7573526971348348
aa(lp185
F0.02085694805537916
aaasg40
g179
sg41
g174
sg42
I86
sg43
g9
(g10
(I0
tp186
g12
tp187
Rp188
(I1
(I1
I6
tp189
g19
I00
S'\x00\x00\x00\x00\x00\x00\xf0?\x00\x00\x00\x00\x00\x00\x00\x00/\xd2h\x96\xc1\xde\xef?\x00\x00\x00\x00\x00\x00\xf0?\x00\x00\x00\x00\x00\x00\x00\x00\x00\x00\x00\x00\x00\x00\x00\x00'
p190
tp191
bsg50
(lp192
F-0.5185859754586009
aF2.66464800565541
aF4.20195129176995
aF-1.8687321190292698
aF-3.0675037290462606
aF-0.9173228697895192
aF4.3884128842734045
aF1.5496166912984735
aF-6.238496712729001
aF-3.3647049322591562
aF-0.18177842253685705
aF-0.7230880349286436
aF2.0666808354756103
aF0.8719370449111348
aF2.2378827371448944
aF1.7069047620061895
aF-3.0462053040865267
aF-3.522544157538127
aF1.407145675927713
aF-2.463556249445732
aF0.2799753849164917
aF0.5322917826379864
aF-2.4927209118532305
aF-3.8020016151609384
aF1.553489046261694
aF-0.5938393904240353
aF-4.947477393310664
aF2.4669611158276243
aF-1.7573526971348348
aF0.02085694805537916
asg52
g9
(g10
(I0
tp193
g12
tp194
Rp195
(I1
(I1
I1
tp196
g19
I00
S'@^Q\xf0\xbb\x05\xed\xbf'
p197
tp198
bsbag1
(g2
g3
Ntp199
Rp200
(dp201
g7
I1
sg8
g9
(g10
(I0
tp202
g12
tp203
Rp204
(I1
(I1
I6
tp205
g19
I00
S'\x84\xd3\xf8\xc1\x19Kv@\xef \x1d\xa2,P\x8f\xc0\xc6R[\x1e\x11\xedH\xc0/C\xef\x9e.\xc1\x87@\xe1\xac.D\xf6\xa5{\xc0\xc6\x95\x02\n\xd3\xfb\x90\xc0'
p206
tp207
bsg24
I4
sg25
I6
sg26
(lp208
(lp209
(lp210
F-0.4047077871943623
aF2.516780404612401
aF4.484496797861269
aF-2.0557572255869063
aF-2.7954678314259906
aF-0.9739855040632549
aa(lp211
F4.3884128842734045
aF1.8095564690301364
aF-6.466537372491478
aF-3.592384836229107
aF0.0431599898546646
aF-0.5975502105688576
aa(lp212
F2.0666808354756103
aF1.143510633397514
aF2.3037063101160413
aF1.7069047620061895
aF-3.062982325205074
aF-3.2820635123468587
aa(lp213
F1.5333184862162486
aF-2.463556249445732
aF0.01405913653674331
aF0.5661834356956538
aF-2.231921108083553
aF-3.8390487919652236
aaa(lp214
(lp215
F1.9271721076992723
aa(lp216
F-0.5938393904240353
aa(lp217
F-5.01558580608305
aa(lp218
F2.6292606189126997
aa(lp219
F-1.461451954016269
aa(lp220
F0.02085694805537916
aaasg40
g214
sg41
g209
sg42
I4665
sg43
g9
(g10
(I0
tp221
g12
tp222
Rp223
(I1
(I1
I6
tp224
g19
I00
S'\x00\x00\x00\x00\x00\x00\xf0?\x00\x00\x00\x00\x00\x00\x00\x00\xb8\xdc\xc2\xb7z\xe5p;\x00\x00\x00\x00\x00\x00\xf0?T\x85\xcf\xda:\xb0\x0b\x18\x00\x00\x00\x00\x00\x00\x00\x00'
p225
tp226
bsg50
(lp227
F-0.4047077871943623
aF2.516780404612401
aF4.484496797861269
aF-2.0557572255869063
aF-2.7954678314259906
aF-0.9739855040632549
aF4.3884128842734045
aF1.8095564690301364
aF-6.466537372491478
aF-3.592384836229107
aF0.0431599898546646
aF-0.5975502105688576
aF2.0666808354756103
aF1.143510633397514
aF2.3037063101160413
aF1.7069047620061895
aF-3.062982325205074
aF-3.2820635123468587
aF1.5333184862162486
aF-2.463556249445732
aF0.01405913653674331
aF0.5661834356956538
aF-2.231921108083553
aF-3.8390487919652236
aF1.9271721076992723
aF-0.5938393904240353
aF-5.01558580608305
aF2.6292606189126997
aF-1.461451954016269
aF0.02085694805537916
asg52
g9
(g10
(I0
tp228
g12
tp229
Rp230
(I1
(I1
I1
tp231
g19
I00
S'\xde\xe3,\x80\xc99\x12@'
p232
tp233
bsbag1
(g2
g3
Ntp234
Rp235
(dp236
g7
I1
sg8
g9
(g10
(I0
tp237
g12
tp238
Rp239
(I1
(I1
I6
tp240
g19
I00
S'\x0f?\x91\xd0\xb7i}\xc04Q_x\x8c \x8a\xc0\xe5G#\x95\xed\xbc\x8b@;\\\xf0\xe3\xc2\xeb\x85@\xc07\n\x93utl\xc0\xb9r2\xf2\xab\xcb\x82\xc0'
p241
tp242
bsg24
I4
sg25
I6
sg26
(lp243
(lp244
(lp245
F-0.5782100956542413
aF2.1561854692636886
aF4.484496797861269
aF-1.8225175289727629
aF-3.1956617059234516
aF-0.9173228697895192
aa(lp246
F4.3884128842734045
aF1.8095564690301364
aF-6.466537372491478
aF-3.4795673545368215
aF-0.34109886078150753
aF-0.5975502105688576
aa(lp247
F2.0666808354756103
aF0.8719370449111348
aF2.3583452844033252
aF1.7069047620061895
aF-3.062982325205074
aF-3.522544157538127
aa(lp248
F1.3713408073449764
aF-2.463556249445732
aF-0.007575186835686764
aF0.5661834356956538
aF-2.231921108083553
aF-4.118774826333525
aaa(lp249
(lp250
F1.9271721076992723
aa(lp251
F-0.5938393904240353
aa(lp252
F-4.915402235879751
aa(lp253
F2.8492992189624595
aa(lp254
F-1.6054025529808351
aa(lp255
F0.3155651124620009
aaasg40
g249
sg41
g244
sg42
I195
sg43
g9
(g10
(I0
tp256
g12
tp257
Rp258
(I1
(I1
I6
tp259
g19
I00
S'\xeb#\xb1\xf7G\xa5\x80\x15\x00\x00\x00\x00\x00\x00\x00\x00\x00\x00\x00\x00\x00\x00\xf0?\x00\x00\x00\x00\x00\x00\xf0?\xe3}\xef\xcc\xb7\x03h+\x98v\xbd\xaf\xf2f\xb3\t'
p260
tp261
bsg50
(lp262
F-0.5782100956542413
aF2.1561854692636886
aF4.484496797861269
aF-1.8225175289727629
aF-3.1956617059234516
aF-0.9173228697895192
aF4.3884128842734045
aF1.8095564690301364
aF-6.466537372491478
aF-3.4795673545368215
aF-0.34109886078150753
aF-0.5975502105688576
aF2.0666808354756103
aF0.8719370449111348
aF2.3583452844033252
aF1.7069047620061895
aF-3.062982325205074
aF-3.522544157538127
aF1.3713408073449764
aF-2.463556249445732
aF-0.007575186835686764
aF0.5661834356956538
aF-2.231921108083553
aF-4.118774826333525
aF1.9271721076992723
aF-0.5938393904240353
aF-4.915402235879751
aF2.8492992189624595
aF-1.6054025529808351
aF0.3155651124620009
asg52
g9
(g10
(I0
tp263
g12
tp264
Rp265
(I1
(I1
I1
tp266
g19
I00
S'\x15\x9d\xbe\x04a\x87\x00\xc0'
p267
tp268
bsbag1
(g2
g3
Ntp269
Rp270
(dp271
g7
I1
sg8
g9
(g10
(I0
tp272
g12
tp273
Rp274
(I1
(I1
I6
tp275
g19
I00
S'\xeeAm\x0f\x84\x9d\x82@T\x8d\xf0\xca\xed\x04\x95\xc0\x0f\x9e\x994\x06#I\xc0-P\xd13\xd1i\x88@\xe4a\xa3\x94\xb4\xaf\x83\xc0\xa6\xb1[\xcd=d\x9a\xc0'
p276
tp277
bsg24
I4
sg25
I6
sg26
(lp278
(lp279
(lp280
F-0.4083555399458262
aF2.4196145647699883
aF4.502891600198943
aF-1.6685398101668725
aF-3.419966493538168
aF-0.712387232562623
aa(lp281
F4.3884128842734045
aF1.8095564690301364
aF-6.466537372491478
aF-3.6027578348520772
aF-0.18374187108003354
aF-0.8722930599372696
aa(lp282
F1.9628974941731407
aF0.5972698618898955
aF2.3037063101160413
aF1.705294522156727
aF-3.0462053040865267
aF-3.776622322363955
aa(lp283
F1.6619456881173296
aF-2.463556249445732
aF0.01405913653674331
aF0.5661834356956538
aF-2.231921108083553
aF-3.978945144354155
aaa(lp284
(lp285
F2.106880280675901
aa(lp286
F-0.5938393904240353
aa(lp287
F-4.947477393310664
aa(lp288
F2.6292606189126997
aa(lp289
F-1.5437912504875304
aa(lp290
F0.10366765425917014
aaasg40
g284
sg41
g279
sg42
I11325
sg43
g9
(g10
(I0
tp291
g12
tp292
Rp293
(I1
(I1
I6
tp294
g19
I00
S'\x00\x00\x00\x00\x00\x00\xf0?\x00\x00\x00\x00\x00\x00\x00\x00M\xe2\xf1\xb9S+f;\x00\x00\x00\x00\x00\x00\xf0?\x9a\xf8W\xbc_\xd1!\x07\x00\x00\x00\x00\x00\x00\x00\x00'
p295
tp296
bsg50
(lp297
F-0.4083555399458262
aF2.4196145647699883
aF4.502891600198943
aF-1.6685398101668725
aF-3.419966493538168
aF-0.712387232562623
aF4.3884128842734045
aF1.8095564690301364
aF-6.466537372491478
aF-3.6027578348520772
aF-0.18374187108003354
aF-0.8722930599372696
aF1.9628974941731407
aF0.5972698618898955
aF2.3037063101160413
aF1.705294522156727
aF-3.0462053040865267
aF-3.776622322363955
aF1.6619456881173296
aF-2.463556249445732
aF0.01405913653674331
aF0.5661834356956538
aF-2.231921108083553
aF-3.978945144354155
aF2.106880280675901
aF-0.5938393904240353
aF-4.947477393310664
aF2.6292606189126997
aF-1.5437912504875304
aF0.10366765425917014
asg52
g9
(g10
(I0
tp298
g12
tp299
Rp300
(I1
(I1
I1
tp301
g19
I00
S'\x9b\xec\x83\xeb\xce\xf1\x12@'
p302
tp303
bsbag1
(g2
g3
Ntp304
Rp305
(dp306
g7
I1
sg8
g9
(g10
(I0
tp307
g12
tp308
Rp309
(I1
(I1
I6
tp310
g19
I00
S'{\xc7\x0c\xb53\xc0\x7f@\xc8\xbf\xe8\xd8\xa7\x81\x92\xc0,\x1b\xb0\x00\xdf\rD\xc0\xb0\x8eS\xcc1\xa4\x87@B\xa8\xb6\xfe\xaaR\x81\xc0\xe3\xab\xd7\xfciP\x96\xc0'
p311
tp312
bsg24
I4
sg25
I6
sg26
(lp313
(lp314
(lp315
F-0.5782100956542413
aF2.4196145647699883
aF4.484496797861269
aF-1.8225175289727629
aF-3.1956617059234516
aF-0.9173228697895192
aa(lp316
F4.192080843593583
aF1.8095564690301364
aF-6.547539155262709
aF-3.3647049322591562
aF-0.34109886078150753
aF-0.5975502105688576
aa(lp317
F2.0666808354756103
aF0.8719370449111348
aF2.3583452844033252
aF1.7069047620061895
aF-3.062982325205074
aF-3.522544157538127
aa(lp318
F1.5333184862162486
aF-2.285287199904027
aF0.01405913653674331
aF0.5661834356956538
aF-2.231921108083553
aF-3.7978378208293515
aaa(lp319
(lp320
F2.0502658358346695
aa(lp321
F-0.5938393904240353
aa(lp322
F-5.207149748335273
aa(lp323
F2.6292606189126997
aa(lp324
F-1.5528988083427255
aa(lp325
F0.05884445650830905
aaasg40
g319
sg41
g314
sg42
I4128
sg43
g9
(g10
(I0
tp326
g12
tp327
Rp328
(I1
(I1
I6
tp329
g19
I00
S'\x00\x00\x00\x00\x00\x00\xf0?\x00\x00\x00\x00\x00\x00\x00\x00\xea\xb44wu\x94Q<\x00\x00\x00\x00\x00\x00\xf0?\xb3\xd0^\x1a\xb1<\xf3\r\x00\x00\x00\x00\x00\x00\x00\x00'
p330
tp331
bsg50
(lp332
F-0.5782100956542413
aF2.4196145647699883
aF4.484496797861269
aF-1.8225175289727629
aF-3.1956617059234516
aF-0.9173228697895192
aF4.192080843593583
aF1.8095564690301364
aF-6.547539155262709
aF-3.3647049322591562
aF-0.34109886078150753
aF-0.5975502105688576
aF2.0666808354756103
aF0.8719370449111348
aF2.3583452844033252
aF1.7069047620061895
aF-3.062982325205074
aF-3.522544157538127
aF1.5333184862162486
aF-2.285287199904027
aF0.01405913653674331
aF0.5661834356956538
aF-2.231921108083553
aF-3.7978378208293515
aF2.0502658358346695
aF-0.5938393904240353
aF-5.207149748335273
aF2.6292606189126997
aF-1.5528988083427255
aF0.05884445650830905
asg52
g9
(g10
(I0
tp333
g12
tp334
Rp335
(I1
(I1
I1
tp336
g19
I00
S'\x8a\xa0o\xc8\xd5\xb7\x12@'
p337
tp338
bsbag1
(g2
g3
Ntp339
Rp340
(dp341
g7
I1
sg8
g9
(g10
(I0
tp342
g12
tp343
Rp344
(I1
(I1
I6
tp345
g19
I00
S'\x9a\x1d\xa5\xae\xd7ci@\xbc\xbdwd\x0c\x98\x89\xc0\xe0\x93\xd8(\x0f\xd2H\xc0U\xfc3\xa6[\xea\x85@\xf3\xa4TI\x06;`\xc0^CR;\xc4\x88\x88\xc0'
p346
tp347
bsg24
I4
sg25
I6
sg26
(lp348
(lp349
(lp350
F-0.4083555399458262
aF2.60663249891734
aF4.484496797861269
aF-1.9162761036269313
aF-3.419966493538168
aF-0.712387232562623
aa(lp351
F4.3884128842734045
aF1.8095564690301364
aF-6.466537372491478
aF-3.6027578348520772
aF-0.18374187108003354
aF-0.8722930599372696
aa(lp352
F1.9628974941731407
aF0.5972698618898955
aF2.3037063101160413
aF1.8903496016742625
aF-3.0462053040865267
aF-3.7174088032659744
aa(lp353
F1.5333184862162486
aF-2.463556249445732
aF0.03301165672119681
aF0.5661834356956538
aF-2.231921108083553
aF-3.9251891801405754
aaa(lp354
(lp355
F1.9271721076992723
aa(lp356
F-0.5938393904240353
aa(lp357
F-5.043647312112427
aa(lp358
F2.8633633224066597
aa(lp359
F-1.8068676987426018
aa(lp360
F0.02085694805537916
aaasg40
g354
sg41
g349
sg42
I5205
sg43
g9
(g10
(I0
tp361
g12
tp362
Rp363
(I1
(I1
I6
tp364
g19
I00
S'\x00\x00\x00\x00\x00\x00\xf0?\x00\x00\x00\x00\x00\x00\x00\x00~=\xd4\xca\x92\xddt;\x00\x00\x00\x00\x00\x00\xf0?n+.\x1b\xf1\x8694\x00\x00\x00\x00\x00\x00\x00\x00'
p365
tp366
bsg50
(lp367
F-0.4083555399458262
aF2.60663249891734
aF4.484496797861269
aF-1.9162761036269313
aF-3.419966493538168
aF-0.712387232562623
aF4.3884128842734045
aF1.8095564690301364
aF-6.466537372491478
aF-3.6027578348520772
aF-0.18374187108003354
aF-0.8722930599372696
aF1.9628974941731407
aF0.5972698618898955
aF2.3037063101160413
aF1.8903496016742625
aF-3.0462053040865267
aF-3.7174088032659744
aF1.5333184862162486
aF-2.463556249445732
aF0.03301165672119681
aF0.5661834356956538
aF-2.231921108083553
aF-3.9251891801405754
aF1.9271721076992723
aF-0.5938393904240353
aF-5.043647312112427
aF2.8633633224066597
aF-1.8068676987426018
aF0.02085694805537916
asg52
g9
(g10
(I0
tp368
g12
tp369
Rp370
(I1
(I1
I1
tp371
g19
I00
S'~\x89\xaa\x1e\x82)\x13@'
p372
tp373
bsba.