(lp0
ccopy_reg
_reconstructor
p1
(c__main__
Neural_Network
p2
c__builtin__
object
p3
Ntp4
Rp5
(dp6
S'output_layer_size'
p7
I1
sS'z2'
p8
cnumpy.core.multiarray
_reconstruct
p9
(cnumpy
ndarray
p10
(I0
tp11
S'b'
p12
tp13
Rp14
(I1
(I1
I6
tp15
cnumpy
dtype
p16
(S'f8'
p17
I0
I1
tp18
Rp19
(I3
S'<'
p20
NNNI-1
I-1
I0
tp21
bI00
S'wT?\x9a\xc2yo@\x04\xe9\x8a\x07\xc5\xc3\x92\xc0dt\xde\x83\x1d\x87<\xc0\x98\x10\xdb_\xd0\xb9\x85@z\x7fEI"\xe8\x82\xc0w\xd8X\xef\xc6\xb9\x91\xc0'
p22
tp23
bsS'input_layer_size'
p24
I4
sS'hidden_layer_size'
p25
I6
sS'weights'
p26
(lp27
(lp28
(lp29
F0.27261907077844855
aF2.9845289014196776
aF4.597762623320725
aF-2.3364158968444113
aF-2.1817591237960867
aF-1.2604015259173569
aa(lp30
F4.33879388493106
aF1.6534995280233107
aF-6.9901816607688865
aF-3.0172075901579967
aF0.7752260671278064
aF-0.16139664449924446
aa(lp31
F1.9428791184374794
aF1.229351222812372
aF1.2936632737831222
aF2.756295350669625
aF-3.3715263267760704
aF-3.5736684542234225
aa(lp32
F1.3358108758410168
aF-2.7080312888381473
aF0.30047092380197976
aF0.00211058730109763
aF-2.040158268931643
aF-3.550932624714143
aaa(lp33
(lp34
F1.407310024254382
aa(lp35
F-0.3113193756081354
aa(lp36
F-4.576063935312372
aa(lp37
F2.9922725248740947
aa(lp38
F-1.500325409456484
aa(lp39
F-0.21127064339156346
aaasS'W2'
p40
g33
sS'W1'
p41
g28
sS'fitness'
p42
I2145
sS'a2'
p43
g9
(g10
(I0
tp44
g12
tp45
Rp46
(I1
(I1
I6
tp47
g19
I00
S'\x00\x00\x00\x00\x00\x00\xf0?\x00\x00\x00\x00\x00\x00\x00\x00n\xfez\xec\xc7\xb3\\=\x00\x00\x00\x00\x00\x00\xf0?\xb51\x17\r*\xb2a\t\x00\x00\x00\x00\x00\x00\x00\x00'
p48
tp49
bsS'chromosome'
p50
(lp51
F0.27261907077844855
aF2.9845289014196776
aF4.597762623320725
aF-2.3364158968444113
aF-2.1817591237960867
aF-1.2604015259173569
aF4.33879388493106
aF1.6534995280233107
aF-6.9901816607688865
aF-3.0172075901579967
aF0.7752260671278064
aF-0.16139664449924446
aF1.9428791184374794
aF1.229351222812372
aF1.2936632737831222
aF2.756295350669625
aF-3.3715263267760704
aF-3.5736684542234225
aF1.3358108758410168
aF-2.7080312888381473
aF0.30047092380197976
aF0.00211058730109763
aF-2.040158268931643
aF-3.550932624714143
aF1.407310024254382
aF-0.3113193756081354
aF-4.576063935312372
aF2.9922725248740947
aF-1.500325409456484
aF-0.21127064339156346
asS'z3'
p52
g9
(g10
(I0
tp53
g12
tp54
Rp55
(I1
(I1
I1
tp56
g19
I00
S'T4\xf2*,\x99\x11@'
p57
tp58
bsbag1
(g2
g3
Ntp59
Rp60
(dp61
g7
I1
sg8
g9
(g10
(I0
tp62
g12
tp63
Rp64
(I1
(I1
I6
tp65
g19
I00
S'\xb2\x88\x1d\x91\x1fOv@5\xa0\x03\x90\xb0\xf0\x99\xc0\x10k\xa0\x90Y>\x10\xc0\x11#Q\xc1\xbes\x87@\xe0\xe4(9\x07\x06\x86\xc0\xfbz:Zb\xff\x97\xc0'
p66
tp67
bsg24
I4
sg25
I6
sg26
(lp68
(lp69
(lp70
F0.5250693337685541
aF2.9845289014196776
aF4.597762623320725
aF-2.6346199102546657
aF-2.1817591237960867
aF-1.2604015259173569
aa(lp71
F4.344415558757088
aF1.721004222394243
aF-6.766635568708677
aF-3.0951826045407422
aF0.6785228426274102
aF-0.28059769787100347
aa(lp72
F1.9428791184374794
aF1.229351222812372
aF1.2936632737831222
aF2.7765846978258524
aF-3.3715263267760704
aF-3.5736684542234225
aa(lp73
F1.3320589132036198
aF-2.943515889622767
aF0.30047092380197976
aF0.10098866304852011
aF-1.7635809247464427
aF-3.550932624714143
aaa(lp74
(lp75
F1.407310024254382
aa(lp76
F-0.3113193756081354
aa(lp77
F-4.576063935312372
aa(lp78
F2.9922725248740947
aa(lp79
F-1.4866953211813494
aa(lp80
F0.014858272973623604
aaasg40
g74
sg41
g69
sg42
I169
sg43
g9
(g10
(I0
tp81
g12
tp82
Rp83
(I1
(I1
I6
tp84
g19
I00
S'\x00\x00\x00\x00\x00\x00\xf0?\x00\x00\x00\x00\x00\x00\x00\x00\t\x92\x1cO,Y\x91?\x00\x00\x00\x00\x00\x00\xf0?Y}\xd0\xba\xdf\x19c\x00\x00\x00\x00\x00\x00\x00\x00\x00'
p85
tp86
bsg50
(lp87
F0.5250693337685541
aF2.9845289014196776
aF4.597762623320725
aF-2.6346199102546657
aF-2.1817591237960867
aF-1.2604015259173569
aF4.344415558757088
aF1.721004222394243
aF-6.766635568708677
aF-3.0951826045407422
aF0.6785228426274102
aF-0.28059769787100347
aF1.9428791184374794
aF1.229351222812372
aF1.2936632737831222
aF2.7765846978258524
aF-3.3715263267760704
aF-3.5736684542234225
aF1.3320589132036198
aF-2.943515889622767
aF0.30047092380197976
aF0.10098866304852011
aF-1.7635809247464427
aF-3.550932624714143
aF1.407310024254382
aF-0.3113193756081354
aF-4.576063935312372
aF2.9922725248740947
aF-1.4866953211813494
aF0.014858272973623604
asg52
g9
(g10
(I0
tp88
g12
tp89
Rp90
(I1
(I1
I1
tp91
g19
I00
S'\x8f\xc7f\x13\xc9I\x11@'
p92
tp93
bsbag1
(g2
g3
Ntp94
Rp95
(dp96
g7
I1
sg8
g9
(g10
(I0
tp97
g12
tp98
Rp99
(I1
(I1
I6
tp100
g19
I00
S'\xd5\xbaw\xe8\xf4\x16\x88\xc0\xbf[\t\xed"\x1e~\xc0\x07\xce\x07N\xd0\x92\x8e@\xba\xe7L\xc8\xbeD\x80@\xe4.\xde\x9f\xb9IH\xc0\xdb\xfcH\x15CyP@'
p101
tp102
bsg24
I4
sg25
I6
sg26
(lp103
(lp104
(lp105
F0.49059676919116524
aF2.9845289014196776
aF4.571515950074979
aF-2.1854980302205456
aF-2.5315302585581385
aF-1.1111250987845738
aa(lp106
F4.605101556564208
aF1.8799366259017147
aF-6.732881500501918
aF-3.0643482294089748
aF0.7752260671278064
aF-0.4108130530625601
aa(lp107
F1.9428791184374794
aF1.229351222812372
aF1.0740119295006048
aF2.6966873869543044
aF-3.2718291370849957
aF-3.3019813571230845
aa(lp108
F1.4160687489857555
aF-2.580699279515481
aF0.30047092380197976
aF0.16193799796241992
aF-1.7635809247464427
aF-3.4013042896200463
aaa(lp109
(lp110
F1.407310024254382
aa(lp111
F-0.5530299270862356
aa(lp112
F-4.576063935312372
aa(lp113
F2.955161768913155
aa(lp114
F-1.5735118236356977
aa(lp115
F0.24879795530425214
aaasg40
g109
sg41
g104
sg42
I916
sg43
g9
(g10
(I0
tp116
g12
tp117
Rp118
(I1
(I1
I6
tp119
g19
I00
S'\x00\x00\x00\x00\x00\x00\x00\x00-Y\xba\xc7\x81\xa5{\x14\x00\x00\x00\x00\x00\x00\xf0?\x00\x00\x00\x00\x00\x00\xf0?\xe2L\xe6\x80`D\x8e;\x00\x00\x00\x00\x00\x00\xf0?'
p120
tp121
bsg50
(lp122
F0.49059676919116524
aF2.9845289014196776
aF4.571515950074979
aF-2.1854980302205456
aF-2.5315302585581385
aF-1.1111250987845738
aF4.605101556564208
aF1.8799366259017147
aF-6.732881500501918
aF-3.0643482294089748
aF0.7752260671278064
aF-0.4108130530625601
aF1.9428791184374794
aF1.229351222812372
aF1.0740119295006048
aF2.6966873869543044
aF-3.2718291370849957
aF-3.3019813571230845
aF1.4160687489857555
aF-2.580699279515481
aF0.30047092380197976
aF0.16193799796241992
aF-1.7635809247464427
aF-3.4013042896200463
aF1.407310024254382
aF-0.5530299270862356
aF-4.576063935312372
aF2.955161768913155
aF-1.5735118236356977
aF0.24879795530425214
asg52
g9
(g10
(I0
tp123
g12
tp124
Rp125
(I1
(I1
I1
tp126
g19
I00
S'E\xb5\x95\x8b#\xf4\xf5\xbf'
p127
tp128
bsbag1
(g2
g3
Ntp129
Rp130
(dp131
g7
I1
sg8
g9
(g10
(I0
tp132
g12
tp133
Rp134
(I1
(I1
I6
tp135
g19
I00
S'L]6\x91v;|@CC\x8aU\xe8U\x98\xc0\xd6\xc0m\xb9K\xc0@\xc0\xe7Q\x04\xf5}I\x85@\x94\xddE\xfc\xf2\x1a|\xc0\x9d\x1bG\xa6\xad\x86\x95\xc0'
p136
tp137
bsg24
I4
sg25
I6
sg26
(lp138
(lp139
(lp140
F0.27261907077844855
aF3.1110375166944166
aF4.597762623320725
aF-2.1582684096050007
aF-2.462664018773069
aF-1.1111250987845738
aa(lp141
F4.605101556564208
aF1.721004222394243
aF-6.752774607308578
aF-3.0643482294089748
aF0.7752260671278064
aF-0.4108130530625601
aa(lp142
F1.9428791184374794
aF1.229351222812372
aF1.2936632737831222
aF2.6966873869543044
aF-3.2718291370849957
aF-3.3019813571230845
aa(lp143
F1.6655688194854954
aF-2.580699279515481
aF0.30047092380197976
aF0.2939991770267334
aF-1.4770858794161164
aF-3.42823889334477
aaa(lp144
(lp145
F1.407310024254382
aa(lp146
F-0.5530299270862356
aa(lp147
F-4.576063935312372
aa(lp148
F2.955161768913155
aa(lp149
F-1.710566802966898
aa(lp150
F0.24879795530425214
aaasg40
g144
sg41
g139
sg42
I5939
sg43
g9
(g10
(I0
tp151
g12
tp152
Rp153
(I1
(I1
I6
tp154
g19
I00
S'\x00\x00\x00\x00\x00\x00\xf0?\x00\x00\x00\x00\x00\x00\x00\x00\x85jZq\xb6d\xe9<\x00\x00\x00\x00\x00\x00\xf0?\xa6\xe75\x06D\xeeb\x17\x00\x00\x00\x00\x00\x00\x00\x00'
p155
tp156
bsg50
(lp157
F0.27261907077844855
aF3.1110375166944166
aF4.597762623320725
aF-2.1582684096050007
aF-2.462664018773069
aF-1.1111250987845738
aF4.605101556564208
aF1.721004222394243
aF-6.752774607308578
aF-3.0643482294089748
aF0.7752260671278064
aF-0.4108130530625601
aF1.9428791184374794
aF1.229351222812372
aF1.2936632737831222
aF2.6966873869543044
aF-3.2718291370849957
aF-3.3019813571230845
aF1.6655688194854954
aF-2.580699279515481
aF0.30047092380197976
aF0.2939991770267334
aF-1.4770858794161164
aF-3.42823889334477
aF1.407310024254382
aF-0.5530299270862356
aF-4.576063935312372
aF2.955161768913155
aF-1.710566802966898
aF0.24879795530425214
asg52
g9
(g10
(I0
tp158
g12
tp159
Rp160
(I1
(I1
I1
tp161
g19
I00
S'\n\x82E\xce+s\x11@'
p162
tp163
bsbag1
(g2
g3
Ntp164
Rp165
(dp166
g7
I1
sg8
g9
(g10
(I0
tp167
g12
tp168
Rp169
(I1
(I1
I6
tp170
g19
I00
S'i6\xca\x95.S\x86\xc0\x1f\xf4\xad\xb0q?\x7f\xc0\x92a\xba&\xea\xef\x8d@\x7f\x9d\xe9Mw\xaf\x80@\x1ew`\xb0\xb5\xd4[\xc0\xb0\xd0,\xcc\xbf\xb5 @'
p171
tp172
bsg24
I4
sg25
I6
sg26
(lp173
(lp174
(lp175
F0.4139269941738436
aF2.9845289014196776
aF4.597762623320725
aF-2.3364158968444113
aF-2.1817591237960867
aF-1.160875078404972
aa(lp176
F4.33879388493106
aF1.9440877858350438
aF-6.752774607308578
aF-3.0951826045407422
aF1.0665470459053976
aF-0.16139664449924446
aa(lp177
F2.2189106223705553
aF1.229351222812372
aF1.2936632737831222
aF2.756295350669625
aF-3.3715263267760704
aF-3.5736684542234225
aa(lp178
F1.3358108758410168
aF-2.7080312888381473
aF0.30047092380197976
aF0.10098866304852011
aF-1.7635809247464427
aF-3.6392017940379313
aaa(lp179
(lp180
F2.047626209499224
aa(lp181
F-0.48184406069235086
aa(lp182
F-4.354236287659424
aa(lp183
F1.6478848673031548
aa(lp184
F-1.8260808560139812
aa(lp185
F0.4969803299365923
aaasg40
g179
sg41
g174
sg42
I555
sg43
g9
(g10
(I0
tp186
g12
tp187
Rp188
(I1
(I1
I6
tp189
g19
I00
S'\x00\x00\x00\x00\x00\x00\x00\x00t0\xaf\x19\xfe\t\xda\x12\x00\x00\x00\x00\x00\x00\xf0?\x00\x00\x00\x00\x00\x00\xf0?\x9d\xf4n6O\x06\xe5556\x9c\xd1\x12\xfe\xef?'
p190
tp191
bsg50
(lp192
F0.4139269941738436
aF2.9845289014196776
aF4.597762623320725
aF-2.3364158968444113
aF-2.1817591237960867
aF-1.160875078404972
aF4.33879388493106
aF1.9440877858350438
aF-6.752774607308578
aF-3.0951826045407422
aF1.0665470459053976
aF-0.16139664449924446
aF2.2189106223705553
aF1.229351222812372
aF1.2936632737831222
aF2.756295350669625
aF-3.3715263267760704
aF-3.5736684542234225
aF1.3358108758410168
aF-2.7080312888381473
aF0.30047092380197976
aF0.10098866304852011
aF-1.7635809247464427
aF-3.6392017940379313
aF2.047626209499224
aF-0.48184406069235086
aF-4.354236287659424
aF1.6478848673031548
aF-1.8260808560139812
aF0.4969803299365923
asg52
g9
(g10
(I0
tp193
g12
tp194
Rp195
(I1
(I1
I1
tp196
g19
I00
S'\x81U\x8d\x06\x08\xad\x01\xc0'
p197
tp198
bsbag1
(g2
g3
Ntp199
Rp200
(dp201
g7
I1
sg8
g9
(g10
(I0
tp202
g12
tp203
Rp204
(I1
(I1
I6
tp205
g19
I00
S'\xa2\xfe\x8de\xd8\\\x88\xc0=\x1eI\xe3F\xbe{\xc0:}\x8bXO:\x8e@\xe7\xc1M\xf6\xaa-\x81@\xc4\xc5\xe5ap\x01S\xc0\xca:m\x90\x9c\xb0N@'
p206
tp207
bsg24
I4
sg25
I6
sg26
(lp208
(lp209
(lp210
F0.27261907077844855
aF3.125540227946171
aF4.820532761993796
aF-2.1854980302205456
aF-2.462664018773069
aF-1.2604015259173569
aa(lp211
F4.558818641112296
aF1.721004222394243
aF-6.641178349698579
aF-3.0643482294089748
aF0.7752260671278064
aF-0.4501865621558404
aa(lp212
F2.272094818463776
aF1.431462679081358
aF2.0228816965178247
aF2.0786471368413344
aF-2.8110692666113257
aF-3.1278117788742335
aa(lp213
F1.1636945702068517
aF-2.4586568745072093
aF-0.1913503667940591
aF0.5652729223818821
aF-1.9504798545913717
aF-3.8328675792688562
aaa(lp214
(lp215
F1.407310024254382
aa(lp216
F-0.3113193756081354
aa(lp217
F-4.576063935312372
aa(lp218
F2.9922725248740947
aa(lp219
F-1.500325409456484
aa(lp220
F0.014858272973623604
aaasg40
g214
sg41
g209
sg42
I915
sg43
g9
(g10
(I0
tp221
g12
tp222
Rp223
(I1
(I1
I6
tp224
g19
I00
S'\x00\x00\x00\x00\x00\x00\x00\x00\xb4/`3\x16;\xe8\x17\x00\x00\x00\x00\x00\x00\xf0?\x00\x00\x00\x00\x00\x00\xf0?\xb3\x97\xb6\xdf\xe0\x02\x149\x00\x00\x00\x00\x00\x00\xf0?'
p225
tp226
bsg50
(lp227
F0.27261907077844855
aF3.125540227946171
aF4.820532761993796
aF-2.1854980302205456
aF-2.462664018773069
aF-1.2604015259173569
aF4.558818641112296
aF1.721004222394243
aF-6.641178349698579
aF-3.0643482294089748
aF0.7752260671278064
aF-0.4501865621558404
aF2.272094818463776
aF1.431462679081358
aF2.0228816965178247
aF2.0786471368413344
aF-2.8110692666113257
aF-3.1278117788742335
aF1.1636945702068517
aF-2.4586568745072093
aF-0.1913503667940591
aF0.5652729223818821
aF-1.9504798545913717
aF-3.8328675792688562
aF1.407310024254382
aF-0.3113193756081354
aF-4.576063935312372
aF2.9922725248740947
aF-1.500325409456484
aF0.014858272973623604
asg52
g9
(g10
(I0
tp228
g12
tp229
Rp230
(I1
(I1
I1
tp231
g19
I00
S'~W0\xa2Y\x1a\xf9\xbf'
p232
tp233
bsbag1
(g2
g3
Ntp234
Rp235
(dp236
g7
I1
sg8
g9
(g10
(I0
tp237
g12
tp238
Rp239
(I1
(I1
I6
tp240
g19
I00
S'\x1e\x90@^]\xcdr@P\x05]aY"\x97\xc0\xc2\xe2\x80\x1bYMB\xc0\xb52\xa7\xe6XG\x87@Z\xa6s\x8f/\xdd\x85\xc0ji\x1aJ\x94\xff\x97\xc0'
p241
tp242
bsg24
I4
sg25
I6
sg26
(lp243
(lp244
(lp245
F0.27261907077844855
aF3.0916454422722635
aF4.597762623320725
aF-2.3364158968444113
aF-2.1817591237960867
aF-1.0448764791436111
aa(lp246
F4.33879388493106
aF1.721004222394243
aF-6.752774607308578
aF-3.0951826045407422
aF0.7752260671278064
aF-0.16139664449924446
aa(lp247
F1.7337687177933152
aF1.3129222052752452
aF1.3491372825108134
aF2.756295350669625
aF-3.3715263267760704
aF-3.7443295036335322
aa(lp248
F1.1219131259028512
aF-2.7080312888381473
aF0.30047092380197976
aF0.10098866304852011
aF-1.7635809247464427
aF-3.550932624714143
aaa(lp249
(lp250
F1.407310024254382
aa(lp251
F-0.3113193756081354
aa(lp252
F-4.576063935312372
aa(lp253
F2.9922725248740947
aa(lp254
F-1.500325409456484
aa(lp255
F0.014858272973623604
aaasg40
g249
sg41
g244
sg42
I164
sg43
g9
(g10
(I0
tp256
g12
tp257
Rp258
(I1
(I1
I6
tp259
g19
I00
S'\x00\x00\x00\x00\x00\x00\xf0?\x00\x00\x00\x00\x00\x00\x00\x00G\xc7j\xa2gD\xa2<\x00\x00\x00\x00\x00\x00\xf0?\x11%\x9e\xdfO\x9b\xd8\x00\x00\x00\x00\x00\x00\x00\x00\x00'
p260
tp261
bsg50
(lp262
F0.27261907077844855
aF3.0916454422722635
aF4.597762623320725
aF-2.3364158968444113
aF-2.1817591237960867
aF-1.0448764791436111
aF4.33879388493106
aF1.721004222394243
aF-6.752774607308578
aF-3.0951826045407422
aF0.7752260671278064
aF-0.16139664449924446
aF1.7337687177933152
aF1.3129222052752452
aF1.3491372825108134
aF2.756295350669625
aF-3.3715263267760704
aF-3.7443295036335322
aF1.1219131259028512
aF-2.7080312888381473
aF0.30047092380197976
aF0.10098866304852011
aF-1.7635809247464427
aF-3.550932624714143
aF1.407310024254382
aF-0.3113193756081354
aF-4.576063935312372
aF2.9922725248740947
aF-1.500325409456484
aF0.014858272973623604
asg52
g9
(g10
(I0
tp263
g12
tp264
Rp265
(I1
(I1
I1
tp266
g19
I00
S'\x89<\xf2*,\x99\x11@'
p267
tp268
bsbag1
(g2
g3
Ntp269
Rp270
(dp271
g7
I1
sg8
g9
(g10
(I0
tp272
g12
tp273
Rp274
(I1
(I1
I6
tp275
g19
I00
S'\xb85\xec\x91v`z@4\xa8\xf7\xaf&Y\x97\xc0\xb0\xe8"\xfc\xb2\xeb\'\xc0\xe3\xa2\xd2OR|\x83@t\x16\x92R\x9cg\x85\xc0\x8d\xce\xec\\F\xf9\x96\xc0'
p276
tp277
bsg24
I4
sg25
I6
sg26
(lp278
(lp279
(lp280
F0.27261907077844855
aF2.9845289014196776
aF4.597762623320725
aF-2.1854980302205456
aF-2.462664018773069
aF-1.1111250987845738
aa(lp281
F4.605101556564208
aF1.492292805900672
aF-6.752774607308578
aF-3.0643482294089748
aF0.7752260671278064
aF-0.544343496092581
aa(lp282
F1.9428791184374794
aF1.229351222812372
aF1.2936632737831222
aF2.5719213688483027
aF-3.4199126035788168
aF-3.3019813571230845
aa(lp283
F1.4160687489857555
aF-2.580699279515481
aF0.30047092380197976
aF-0.03985867829042092
aF-1.7635809247464427
aF-3.395561663190804
aaa(lp284
(lp285
F1.1682910925455616
aa(lp286
F-0.5530299270862356
aa(lp287
F-4.653550340538176
aa(lp288
F2.955161768913155
aa(lp289
F-1.710566802966898
aa(lp290
F0.24879795530425214
aaasg40
g284
sg41
g279
sg42
I5388
sg43
g9
(g10
(I0
tp291
g12
tp292
Rp293
(I1
(I1
I6
tp294
g19
I00
S'\x00\x00\x00\x00\x00\x00\xf0?\x00\x00\x00\x00\x00\x00\x00\x00\xbb\x06\x87\xa7\x17\xd0\xda>\x00\x00\x00\x00\x00\x00\xf0?\xa8\xbea\x83\xc0S,\x02\x00\x00\x00\x00\x00\x00\x00\x00'
p295
tp296
bsg50
(lp297
F0.27261907077844855
aF2.9845289014196776
aF4.597762623320725
aF-2.1854980302205456
aF-2.462664018773069
aF-1.1111250987845738
aF4.605101556564208
aF1.492292805900672
aF-6.752774607308578
aF-3.0643482294089748
aF0.7752260671278064
aF-0.544343496092581
aF1.9428791184374794
aF1.229351222812372
aF1.2936632737831222
aF2.5719213688483027
aF-3.4199126035788168
aF-3.3019813571230845
aF1.4160687489857555
aF-2.580699279515481
aF0.30047092380197976
aF-0.03985867829042092
aF-1.7635809247464427
aF-3.395561663190804
aF1.1682910925455616
aF-0.5530299270862356
aF-4.653550340538176
aF2.955161768913155
aF-1.710566802966898
aF0.24879795530425214
asg52
g9
(g10
(I0
tp298
g12
tp299
Rp300
(I1
(I1
I1
tp301
g19
I00
S'\xdb\xdb\xe3\xa0b~\x10@'
p302
tp303
bsbag1
(g2
g3
Ntp304
Rp305
(dp306
g7
I1
sg8
g9
(g10
(I0
tp307
g12
tp308
Rp309
(I1
(I1
I6
tp310
g19
I00
S'\x06\x95>K\xc4\xfb\x81\xc0RE\x0e3\xd3\xd8\x86\xc0n\x8fr\x10\x16\x1c\x8e@\x81\xc8\xd1\xe1r\xf9\x80@f\xa7\xe7\x9fp\x1fl\xc0\x02\xd7\xdc|\xd6vt\xc0'
p311
tp312
bsg24
I4
sg25
I6
sg26
(lp313
(lp314
(lp315
F0.21190913576164053
aF3.139459928572825
aF4.597762623320725
aF-2.1854980302205456
aF-2.462664018773069
aF-1.2501380529953052
aa(lp316
F4.334689975579776
aF1.721004222394243
aF-6.752774607308578
aF-3.119204474101413
aF0.7752260671278064
aF-0.16139664449924446
aa(lp317
F1.9428791184374794
aF1.4325287202066903
aF1.5051479555613607
aF2.756295350669625
aF-3.3715263267760704
aF-3.5736684542234225
aa(lp318
F1.3358108758410168
aF-2.7080312888381473
aF0.13983986707751295
aF0.10098866304852011
aF-1.7635809247464427
aF-3.550932624714143
aaa(lp319
(lp320
F1.4972414348117884
aa(lp321
F-0.3113193756081354
aa(lp322
F-4.576063935312372
aa(lp323
F2.9922725248740947
aa(lp324
F-1.500325409456484
aa(lp325
F0.014858272973623604
aaasg40
g319
sg41
g314
sg42
I21255
sg43
g9
(g10
(I0
tp326
g12
tp327
Rp328
(I1
(I1
I6
tp329
g19
I00
S'\xe8\x06yk\xefM\x0b\x0c\x00\x00\x00\x00\x00\x00\x00\x00\x00\x00\x00\x00\x00\x00\xf0?\x00\x00\x00\x00\x00\x00\xf0?\xbbM\x17\x1a\xd8c\xa5+\xc5\xc6:\x82}\xa0h"'
p330
tp331
bsg50
(lp332
F0.21190913576164053
aF3.139459928572825
aF4.597762623320725
aF-2.1854980302205456
aF-2.462664018773069
aF-1.2501380529953052
aF4.334689975579776
aF1.721004222394243
aF-6.752774607308578
aF-3.119204474101413
aF0.7752260671278064
aF-0.16139664449924446
aF1.9428791184374794
aF1.4325287202066903
aF1.5051479555613607
aF2.756295350669625
aF-3.3715263267760704
aF-3.5736684542234225
aF1.3358108758410168
aF-2.7080312888381473
aF0.13983986707751295
aF0.10098866304852011
aF-1.7635809247464427
aF-3.550932624714143
aF1.4972414348117884
aF-0.3113193756081354
aF-4.576063935312372
aF2.9922725248740947
aF-1.500325409456484
aF0.014858272973623604
asg52
g9
(g10
(I0
tp333
g12
tp334
Rp335
(I1
(I1
I1
tp336
g19
I00
S'2Jx\xa95W\xf9\xbf'
p337
tp338
bsbag1
(g2
g3
Ntp339
Rp340
(dp341
g7
I1
sg8
g9
(g10
(I0
tp342
g12
tp343
Rp344
(I1
(I1
I6
tp345
g19
I00
S"<~'R\x93\xefn\xc0\x19\x94\xdd\xdc\xd0$\x92\xc0\xc7\x9a\x8d\xa0\x1c[\x8f@\xdd\xb7\xd2\xf9\x86;\x83@\xb4\x94\xd9z\x0c&\x83\xc0\xaf*\x8b\x84\xd0\x94\x91\xc0"
p346
tp347
bsg24
I4
sg25
I6
sg26
(lp348
(lp349
(lp350
F0.27261907077844855
aF2.9845289014196776
aF4.597762623320725
aF-2.3364158968444113
aF-2.1817591237960867
aF-0.9900824312444498
aa(lp351
F4.33879388493106
aF1.721004222394243
aF-6.842878831394009
aF-3.0643482294089748
aF0.4973509611053651
aF-0.12217473158382597
aa(lp352
F1.9428791184374794
aF1.229351222812372
aF1.2936632737831222
aF2.6966873869543044
aF-2.989762678681893
aF-3.786338190597781
aa(lp353
F1.4021669714760967
aF-2.5520252316228103
aF0.017284019575037446
aF0.049893179645257295
aF-1.7635809247464427
aF-3.5598506171763735
aaa(lp354
(lp355
F1.4035520463969993
aa(lp356
F-0.19697559846564108
aa(lp357
F-4.576063935312372
aa(lp358
F2.9922725248740947
aa(lp359
F-1.500325409456484
aa(lp360
F0.24879795530425214
aaasg40
g354
sg41
g349
sg42
I186
sg43
g9
(g10
(I0
tp361
g12
tp362
Rp363
(I1
(I1
I6
tp364
g19
I00
S'|\x00\xef\xd5\x91\xf4\x9e)\x00\x00\x00\x00\x00\x00\x00\x00\x00\x00\x00\x00\x00\x00\xf0?\x00\x00\x00\x00\x00\x00\xf0?\xee\xcb\x8d:9\x8e\xaf\x08\x00\x00\x00\x00\x00\x00\x00\x00'
p365
tp366
bsg50
(lp367
F0.27261907077844855
aF2.9845289014196776
aF4.597762623320725
aF-2.3364158968444113
aF-2.1817591237960867
aF-0.9900824312444498
aF4.33879388493106
aF1.721004222394243
aF-6.842878831394009
aF-3.0643482294089748
aF0.4973509611053651
aF-0.12217473158382597
aF1.9428791184374794
aF1.229351222812372
aF1.2936632737831222
aF2.6966873869543044
aF-2.989762678681893
aF-3.786338190597781
aF1.4021669714760967
aF-2.5520252316228103
aF0.017284019575037446
aF0.049893179645257295
aF-1.7635809247464427
aF-3.5598506171763735
aF1.4035520463969993
aF-0.19697559846564108
aF-4.576063935312372
aF2.9922725248740947
aF-1.500325409456484
aF0.24879795530425214
asg52
g9
(g10
(I0
tp368
g12
tp369
Rp370
(I1
(I1
I1
tp371
g19
I00
S'2Jx\xa95W\xf9\xbf'
p372
tp373
bsba.