(lp0
ccopy_reg
_reconstructor
p1
(c__main__
Neural_Network
p2
c__builtin__
object
p3
Ntp4
Rp5
(dp6
S'output_layer_size'
p7
I1
sS'z2'
p8
cnumpy.core.multiarray
_reconstruct
p9
(cnumpy
ndarray
p10
(I0
tp11
S'b'
p12
tp13
Rp14
(I1
(I1
I6
tp15
cnumpy
dtype
p16
(S'f8'
p17
I0
I1
tp18
Rp19
(I3
S'<'
p20
NNNI-1
I-1
I0
tp21
bI00
S'3\xa9\xd3f\xc3\xebw@\xc8<\xad\x88Yv\x92\xc0\n\xf8\xff\xa6\xba?H\xc0\xe0\x19\x85/\x18d\x86@\x99\x13s\x9b \x06\x84\xc0\x08\x17\xb1U\xdc\xb8\x93\xc0'
p22
tp23
bsS'input_layer_size'
p24
I4
sS'hidden_layer_size'
p25
I6
sS'weights'
p26
(lp27
(lp28
(lp29
F-0.4047077871943623
aF2.516780404612401
aF4.484496797861269
aF-2.0557572255869063
aF-2.7954678314259906
aF-0.9739855040632549
aa(lp30
F4.3884128842734045
aF1.8095564690301364
aF-6.466537372491478
aF-3.592384836229107
aF0.01820340014394499
aF-0.7230880349286436
aa(lp31
F2.0666808354756103
aF0.8719370449111348
aF2.2945718085170146
aF1.7069047620061895
aF-3.0462053040865267
aF-3.522544157538127
aa(lp32
F1.407145675927713
aF-2.463556249445732
aF0.01405913653674331
aF0.3611431639281745
aF-2.4927209118532305
aF-3.7083641597898906
aaa(lp33
(lp34
F1.553489046261694
aa(lp35
F-0.5938393904240353
aa(lp36
F-4.947477393310664
aa(lp37
F2.4669611158276243
aa(lp38
F-1.7573526971348348
aa(lp39
F0.02085694805537916
aaasS'W2'
p40
g33
sS'W1'
p41
g28
sS'fitness'
p42
I11148
sS'a2'
p43
g9
(g10
(I0
tp44
g12
tp45
Rp46
(I1
(I1
I6
tp47
g19
I00
S"\x00\x00\x00\x00\x00\x00\xf0?\x00\x00\x00\x00\x00\x00\x00\x00\x9fVSz\xdd\\\x90;\x00\x00\x00\x00\x00\x00\xf0?\x84r)\xea`\xc1'\x06\x00\x00\x00\x00\x00\x00\x00\x00"
p48
tp49
bsS'chromosome'
p50
(lp51
F-0.4047077871943623
aF2.516780404612401
aF4.484496797861269
aF-2.0557572255869063
aF-2.7954678314259906
aF-0.9739855040632549
aF4.3884128842734045
aF1.8095564690301364
aF-6.466537372491478
aF-3.592384836229107
aF0.01820340014394499
aF-0.7230880349286436
aF2.0666808354756103
aF0.8719370449111348
aF2.2945718085170146
aF1.7069047620061895
aF-3.0462053040865267
aF-3.522544157538127
aF1.407145675927713
aF-2.463556249445732
aF0.01405913653674331
aF0.3611431639281745
aF-2.4927209118532305
aF-3.7083641597898906
aF1.553489046261694
aF-0.5938393904240353
aF-4.947477393310664
aF2.4669611158276243
aF-1.7573526971348348
aF0.02085694805537916
asS'z3'
p52
g9
(g10
(I0
tp53
g12
tp54
Rp55
(I1
(I1
I1
tp56
g19
I00
S'p|%\xe3\xf0\x14\x10@'
p57
tp58
bsbag1
(g2
g3
Ntp59
Rp60
(dp61
g7
I1
sg8
g9
(g10
(I0
tp62
g12
tp63
Rp64
(I1
(I1
I6
tp65
g19
I00
S"f\xff\x83\x15\xaeR\x84@%V\x8a9\xc3V\x96\xc0:\xcd\x06\xbe\xe6<H\xc0R'\x886\xde\xdf\x85@TWT\xfa\x19\x8a\x87\xc0 \x05\x9e|\x9d{\x9a\xc0"
p66
tp67
bsg24
I4
sg25
I6
sg26
(lp68
(lp69
(lp70
F-0.825564710416945
aF2.4196145647699883
aF4.484496797861269
aF-1.8687321190292698
aF-3.154311075520413
aF-0.6472915312682419
aa(lp71
F4.403216577135294
aF1.67091063370309
aF-6.466537372491478
aF-3.4415520808542
aF0.0987554568942629
aF-0.8267246496062002
aa(lp72
F1.9628974941731407
aF0.4194656445033569
aF2.3037063101160413
aF1.7062233650904537
aF-3.0462053040865267
aF-3.522544157538127
aa(lp73
F1.5333184862162486
aF-2.463556249445732
aF0.01405913653674331
aF0.2894594914440971
aF-2.231921108083553
aF-3.7083641597898906
aaa(lp74
(lp75
F1.9271721076992723
aa(lp76
F-0.5938393904240353
aa(lp77
F-5.133178608874707
aa(lp78
F2.8632593265296657
aa(lp79
F-1.6054025529808351
aa(lp80
F0.02085694805537916
aaasg40
g74
sg41
g69
sg42
I4305
sg43
g9
(g10
(I0
tp81
g12
tp82
Rp83
(I1
(I1
I6
tp84
g19
I00
S'\x00\x00\x00\x00\x00\x00\xf0?\x00\x00\x00\x00\x00\x00\x00\x00\x88\xc8nlo\xba\x90;\x00\x00\x00\x00\x00\x00\xf0?\x00\x00\x00\x00\x00\x00\x00\x00\x00\x00\x00\x00\x00\x00\x00\x00'
p85
tp86
bsg50
(lp87
F-0.825564710416945
aF2.4196145647699883
aF4.484496797861269
aF-1.8687321190292698
aF-3.154311075520413
aF-0.6472915312682419
aF4.403216577135294
aF1.67091063370309
aF-6.466537372491478
aF-3.4415520808542
aF0.0987554568942629
aF-0.8267246496062002
aF1.9628974941731407
aF0.4194656445033569
aF2.3037063101160413
aF1.7062233650904537
aF-3.0462053040865267
aF-3.522544157538127
aF1.5333184862162486
aF-2.463556249445732
aF0.01405913653674331
aF0.2894594914440971
aF-2.231921108083553
aF-3.7083641597898906
aF1.9271721076992723
aF-0.5938393904240353
aF-5.133178608874707
aF2.8632593265296657
aF-1.6054025529808351
aF0.02085694805537916
asg52
g9
(g10
(I0
tp88
g12
tp89
Rp90
(I1
(I1
I1
tp91
g19
I00
S'\x83\xf9\x9e\xdbf)\x13@'
p92
tp93
bsbag1
(g2
g3
Ntp94
Rp95
(dp96
g7
I1
sg8
g9
(g10
(I0
tp97
g12
tp98
Rp99
(I1
(I1
I6
tp100
g19
I00
S'TH^=\x9ac\x7f\xc0\xd4\xa5@\xf79\xa9\x8a\xc0\xc8\xded\xf8R\xc1\x8c@\x92\xa9\xbc\xaf^\xaa\x86@\xbe\x8d\x99\x80R\x9cs\xc0\x07\xf0\xedt\x00\x8f\x7f\xc0'
p101
tp102
bsg24
I4
sg25
I6
sg26
(lp103
(lp104
(lp105
F-0.825564710416945
aF2.4196145647699883
aF4.484496797861269
aF-1.8687321190292698
aF-3.059345746507581
aF-0.9739855040632549
aa(lp106
F4.496201465955477
aF1.8095564690301364
aF-6.466537372491478
aF-3.514933823323406
aF0.01820340014394499
aF-0.8722930599372696
aa(lp107
F2.0666808354756103
aF0.8719370449111348
aF2.2945718085170146
aF1.7069047620061895
aF-3.0462053040865267
aF-3.522544157538127
aa(lp108
F1.407145675927713
aF-2.644626894030702
aF-0.2695227669807458
aF0.5661834356956538
aF-2.231921108083553
aF-3.8612373599170318
aaa(lp109
(lp110
F1.6709077980413105
aa(lp111
F-0.5938393904240353
aa(lp112
F-5.133178608874707
aa(lp113
F2.6895169809852613
aa(lp114
F-1.3902325650273195
aa(lp115
F0.02085694805537916
aaasg40
g109
sg41
g104
sg42
I193
sg43
g9
(g10
(I0
tp116
g12
tp117
Rp118
(I1
(I1
I6
tp119
g19
I00
S'\xb7Y"\xa6Z\xbd\xa5\x12\x00\x00\x00\x00\x00\x00\x00\x00\x00\x00\x00\x00\x00\x00\xf0?\x00\x00\x00\x00\x00\x00\xf0?\x15?\x1a\x84<\x0c\xa4#\xfcSI\xe2H\x16g\x12'
p120
tp121
bsg50
(lp122
F-0.825564710416945
aF2.4196145647699883
aF4.484496797861269
aF-1.8687321190292698
aF-3.059345746507581
aF-0.9739855040632549
aF4.496201465955477
aF1.8095564690301364
aF-6.466537372491478
aF-3.514933823323406
aF0.01820340014394499
aF-0.8722930599372696
aF2.0666808354756103
aF0.8719370449111348
aF2.2945718085170146
aF1.7069047620061895
aF-3.0462053040865267
aF-3.522544157538127
aF1.407145675927713
aF-2.644626894030702
aF-0.2695227669807458
aF0.5661834356956538
aF-2.231921108083553
aF-3.8612373599170318
aF1.6709077980413105
aF-0.5938393904240353
aF-5.133178608874707
aF2.6895169809852613
aF-1.3902325650273195
aF0.02085694805537916
asg52
g9
(g10
(I0
tp123
g12
tp124
Rp125
(I1
(I1
I1
tp126
g19
I00
S'\xcc3\xb2w\x9e\x8c\x03\xc0'
p127
tp128
bsbag1
(g2
g3
Ntp129
Rp130
(dp131
g7
I1
sg8
g9
(g10
(I0
tp132
g12
tp133
Rp134
(I1
(I1
I6
tp135
g19
I00
S'\x04\xf3\xa7\xc5\x8c\x02\x81@\xe1\xbf^\xc7AC\x95\xc0\xc9\xd2\xba\xe4x\xe7G\xc0\x15\xabe\xc5\x02A\x89@&\x8cd\xfd\xf6P\x88\xc0\x93I\xdf\x95\xc9\x94\x98\xc0'
p136
tp137
bsg24
I4
sg25
I6
sg26
(lp138
(lp139
(lp140
F-0.1391838689042894
aF2.5358819349804245
aF4.484496797861269
aF-1.8687321190292698
aF-3.1956617059234516
aF-0.6472915312682419
aa(lp141
F4.1140650558222145
aF1.8095564690301364
aF-6.466537372491478
aF-3.6027578348520772
aF0.0987554568942629
aF-0.8722930599372696
aa(lp142
F2.215742201711896
aF0.5972698618898955
aF2.3037063101160413
aF1.7062233650904537
aF-3.0462053040865267
aF-3.522544157538127
aa(lp143
F1.5333184862162486
aF-2.463556249445732
aF0.01405913653674331
aF0.5661834356956538
aF-2.4927209118532305
aF-3.7083641597898906
aaa(lp144
(lp145
F1.6705638545321781
aa(lp146
F-0.6731150373638216
aa(lp147
F-4.77046777309747
aa(lp148
F2.4669611158276243
aa(lp149
F-1.7573526971348348
aa(lp150
F0.07182393106703246
aaasg40
g144
sg41
g139
sg42
I11325
sg43
g9
(g10
(I0
tp151
g12
tp152
Rp153
(I1
(I1
I6
tp154
g19
I00
S'\x00\x00\x00\x00\x00\x00\xf0?\x00\x00\x00\x00\x00\x00\x00\x00E\x0b\xeb\xd0\xa4M\xa0;\x00\x00\x00\x00\x00\x00\xf0?\x00\x00\x00\x00\x00\x00\x00\x00\x00\x00\x00\x00\x00\x00\x00\x00'
p155
tp156
bsg50
(lp157
F-0.1391838689042894
aF2.5358819349804245
aF4.484496797861269
aF-1.8687321190292698
aF-3.1956617059234516
aF-0.6472915312682419
aF4.1140650558222145
aF1.8095564690301364
aF-6.466537372491478
aF-3.6027578348520772
aF0.0987554568942629
aF-0.8722930599372696
aF2.215742201711896
aF0.5972698618898955
aF2.3037063101160413
aF1.7062233650904537
aF-3.0462053040865267
aF-3.522544157538127
aF1.5333184862162486
aF-2.463556249445732
aF0.01405913653674331
aF0.5661834356956538
aF-2.4927209118532305
aF-3.7083641597898906
aF1.6705638545321781
aF-0.6731150373638216
aF-4.77046777309747
aF2.4669611158276243
aF-1.7573526971348348
aF0.07182393106703246
asg52
g9
(g10
(I0
tp158
g12
tp159
Rp160
(I1
(I1
I1
tp161
g19
I00
S'\x9cP\x88X\xd3\x8c\x10@'
p162
tp163
bsbag1
(g2
g3
Ntp164
Rp165
(dp166
g7
I1
sg8
g9
(g10
(I0
tp167
g12
tp168
Rp169
(I1
(I1
I6
tp170
g19
I00
S'(S\x83lV\xd6{\xc0\xae\x00\x8f\xfe\x94]\x8a\xc0\xc6\xe8Cg0\xe4\x8b@\xc6GD\xc6z\xe6\x85@\x9a\x10\x04\xa8=\xcbp\xc0\x0c\xb7\x990\xd0$\x81\xc0'
p171
tp172
bsg24
I4
sg25
I6
sg26
(lp173
(lp174
(lp175
F-0.3918840764431183
aF2.4196145647699883
aF4.484496797861269
aF-1.8687321190292698
aF-3.1956617059234516
aF-0.9173228697895192
aa(lp176
F4.3884128842734045
aF1.8095564690301364
aF-6.466537372491478
aF-3.3647049322591562
aF-0.08923769278223326
aF-0.5975502105688576
aa(lp177
F2.0666808354756103
aF0.8719370449111348
aF2.3037063101160413
aF1.4365175454633203
aF-3.062982325205074
aF-3.522544157538127
aa(lp178
F1.5333184862162486
aF-2.463556249445732
aF0.01405913653674331
aF0.6332481708730069
aF-2.231921108083553
aF-3.8390487919652236
aaa(lp179
(lp180
F2.0110270247994024
aa(lp181
F-0.5938393904240353
aa(lp182
F-4.886736463614231
aa(lp183
F2.6292606189126997
aa(lp184
F-1.5528988083427255
aa(lp185
F-0.003657537802113201
aaasg40
g179
sg41
g174
sg42
I195
sg43
g9
(g10
(I0
tp186
g12
tp187
Rp188
(I1
(I1
I6
tp189
g19
I00
S"G\xec\xcd^l\x8b\xc5\x17\x00\x00\x00\x00\x00\x00\x00\x00\x00\x00\x00\x00\x00\x00\xf0?\x00\x00\x00\x00\x00\x00\xf0?\x06\x1a&8\x82O\xb4'F\x01\xe8\x93T/w\x0e"
p190
tp191
bsg50
(lp192
F-0.3918840764431183
aF2.4196145647699883
aF4.484496797861269
aF-1.8687321190292698
aF-3.1956617059234516
aF-0.9173228697895192
aF4.3884128842734045
aF1.8095564690301364
aF-6.466537372491478
aF-3.3647049322591562
aF-0.08923769278223326
aF-0.5975502105688576
aF2.0666808354756103
aF0.8719370449111348
aF2.3037063101160413
aF1.4365175454633203
aF-3.062982325205074
aF-3.522544157538127
aF1.5333184862162486
aF-2.463556249445732
aF0.01405913653674331
aF0.6332481708730069
aF-2.231921108083553
aF-3.8390487919652236
aF2.0110270247994024
aF-0.5938393904240353
aF-4.886736463614231
aF2.6292606189126997
aF-1.5528988083427255
aF-0.003657537802113201
asg52
g9
(g10
(I0
tp193
g12
tp194
Rp195
(I1
(I1
I1
tp196
g19
I00
S'A\x06\xe4~O\x0f\x02\xc0'
p197
tp198
bsbag1
(g2
g3
Ntp199
Rp200
(dp201
g7
I1
sg8
g9
(g10
(I0
tp202
g12
tp203
Rp204
(I1
(I1
I6
tp205
g19
I00
S'\x92\x8c56V\x94n@\xee\x8cU\xc25^\x89\xc0"\xe8\xca\xea\x10\xfe<\xc0G\x84C\xfb\xa1\xce\x84@>\xbb\xb2\xa1\x9d\x1ef\xc0\xdb\xa4aw\xc8s\x87\xc0'
p206
tp207
bsg24
I4
sg25
I6
sg26
(lp208
(lp209
(lp210
F-0.5782100956542413
aF2.66464800565541
aF4.20195129176995
aF-1.8687321190292698
aF-3.0708519910050636
aF-0.9173228697895192
aa(lp211
F4.3884128842734045
aF1.8095564690301364
aF-6.5345237191255565
aF-3.3647049322591562
aF-0.18177842253685705
aF-0.5975502105688576
aa(lp212
F2.0666808354756103
aF0.8719370449111348
aF2.3037063101160413
aF1.7069047620061895
aF-3.062982325205074
aF-3.522544157538127
aa(lp213
F1.5333184862162486
aF-2.463556249445732
aF0.01405913653674331
aF0.5661834356956538
aF-2.231921108083553
aF-3.8390487919652236
aaa(lp214
(lp215
F1.9271721076992723
aa(lp216
F-0.5938393904240353
aa(lp217
F-5.01558580608305
aa(lp218
F2.6292606189126997
aa(lp219
F-1.461451954016269
aa(lp220
F0.02085694805537916
aaasg40
g214
sg41
g209
sg42
I345
sg43
g9
(g10
(I0
tp221
g12
tp222
Rp223
(I1
(I1
I6
tp224
g19
I00
S'\x00\x00\x00\x00\x00\x00\xf0?\x00\x00\x00\x00\x00\x00\x00\x00\xb4*\x14\x00\x02\tR=\x00\x00\x00\x00\x00\x00\xf0?\x11\x1d\x86\x91\xdb\x16\xfa/\x00\x00\x00\x00\x00\x00\x00\x00'
p225
tp226
bsg50
(lp227
F-0.5782100956542413
aF2.66464800565541
aF4.20195129176995
aF-1.8687321190292698
aF-3.0708519910050636
aF-0.9173228697895192
aF4.3884128842734045
aF1.8095564690301364
aF-6.5345237191255565
aF-3.3647049322591562
aF-0.18177842253685705
aF-0.5975502105688576
aF2.0666808354756103
aF0.8719370449111348
aF2.3037063101160413
aF1.7069047620061895
aF-3.062982325205074
aF-3.522544157538127
aF1.5333184862162486
aF-2.463556249445732
aF0.01405913653674331
aF0.5661834356956538
aF-2.231921108083553
aF-3.8390487919652236
aF1.9271721076992723
aF-0.5938393904240353
aF-5.01558580608305
aF2.6292606189126997
aF-1.461451954016269
aF0.02085694805537916
asg52
g9
(g10
(I0
tp228
g12
tp229
Rp230
(I1
(I1
I1
tp231
g19
I00
S'7\xde,\x80\xc99\x12@'
p232
tp233
bsbag1
(g2
g3
Ntp234
Rp235
(dp236
g7
I1
sg8
g9
(g10
(I0
tp237
g12
tp238
Rp239
(I1
(I1
I6
tp240
g19
I00
S'j\xd5\xd1\xdb\xb8\x9e{@_\x1aX2\x02/\x92\xc0~\x0e\xf3\x92\xe8\xe0I\xc0\xd7\xc9n\xbc =\x87@%\xb1H\x07\xb1\xcc}\xc0\x12\xabg\xbc\xda\xe8\x94\xc0'
p241
tp242
bsg24
I4
sg25
I6
sg26
(lp243
(lp244
(lp245
F-0.5782100956542413
aF2.266735288482219
aF4.484496797861269
aF-1.8687321190292698
aF-3.1956617059234516
aF-0.9173228697895192
aa(lp246
F4.3884128842734045
aF1.8095564690301364
aF-6.466537372491478
aF-3.3647049322591562
aF-0.18177842253685705
aF-0.34328417545704815
aa(lp247
F1.8942976490957038
aF0.6879539303765971
aF2.41766677871642
aF1.7069047620061895
aF-2.8369220833372717
aF-3.522544157538127
aa(lp248
F1.5333184862162486
aF-2.463556249445732
aF0.01405913653674331
aF0.5661834356956538
aF-2.231921108083553
aF-3.8390487919652236
aaa(lp249
(lp250
F1.9271721076992723
aa(lp251
F-0.6192120468626249
aa(lp252
F-4.947477393310664
aa(lp253
F2.6292606189126997
aa(lp254
F-1.5528988083427255
aa(lp255
F0.07500721822252032
aaasg40
g249
sg41
g244
sg42
I348
sg43
g9
(g10
(I0
tp256
g12
tp257
Rp258
(I1
(I1
I6
tp259
g19
I00
S'\x00\x00\x00\x00\x00\x00\xf0?\x00\x00\x00\x00\x00\x00\x00\x00\xa1\xe6\x99\xd4\xc4\x1dD;\x00\x00\x00\x00\x00\x00\xf0?\xfa=\x8bE\xe4\x8a\xf1\x14\x00\x00\x00\x00\x00\x00\x00\x00'
p260
tp261
bsg50
(lp262
F-0.5782100956542413
aF2.266735288482219
aF4.484496797861269
aF-1.8687321190292698
aF-3.1956617059234516
aF-0.9173228697895192
aF4.3884128842734045
aF1.8095564690301364
aF-6.466537372491478
aF-3.3647049322591562
aF-0.18177842253685705
aF-0.34328417545704815
aF1.8942976490957038
aF0.6879539303765971
aF2.41766677871642
aF1.7069047620061895
aF-2.8369220833372717
aF-3.522544157538127
aF1.5333184862162486
aF-2.463556249445732
aF0.01405913653674331
aF0.5661834356956538
aF-2.231921108083553
aF-3.8390487919652236
aF1.9271721076992723
aF-0.6192120468626249
aF-4.947477393310664
aF2.6292606189126997
aF-1.5528988083427255
aF0.07500721822252032
asg52
g9
(g10
(I0
tp263
g12
tp264
Rp265
(I1
(I1
I1
tp266
g19
I00
S'\xde\xe3,\x80\xc99\x12@'
p267
tp268
bsbag1
(g2
g3
Ntp269
Rp270
(dp271
g7
I1
sg8
g9
(g10
(I0
tp272
g12
tp273
Rp274
(I1
(I1
I6
tp275
g19
I00
S'\xcb\xe7\xb8-4\xbfw@\xe5\xb4\xf7\xba\xec\x8a\x8f\xc0\x16k\x18`\x88\xe0F\xc0\x06!n\xfc\x80]\x86@X*k\xf6W\xe7v\xc0d\xf2\\\\Yb\x91\xc0'
p276
tp277
bsg24
I4
sg25
I6
sg26
(lp278
(lp279
(lp280
F-0.5782100956542413
aF2.4196145647699883
aF4.484496797861269
aF-1.8225175289727629
aF-3.1956617059234516
aF-0.9173228697895192
aa(lp281
F4.3884128842734045
aF1.8095564690301364
aF-6.466537372491478
aF-3.3647049322591562
aF-0.34109886078150753
aF-0.5975502105688576
aa(lp282
F2.0666808354756103
aF0.8719370449111348
aF2.3583452844033252
aF1.7069047620061895
aF-3.062982325205074
aF-3.522544157538127
aa(lp283
F1.5333184862162486
aF-2.463556249445732
aF0.01405913653674331
aF0.5661834356956538
aF-2.231921108083553
aF-3.8390487919652236
aaa(lp284
(lp285
F2.106880280675901
aa(lp286
F-0.5938393904240353
aa(lp287
F-4.947477393310664
aa(lp288
F2.6292606189126997
aa(lp289
F-1.5528988083427255
aa(lp290
F0.02085694805537916
aaasg40
g284
sg41
g279
sg42
I4665
sg43
g9
(g10
(I0
tp291
g12
tp292
Rp293
(I1
(I1
I6
tp294
g19
I00
S'\x00\x00\x00\x00\x00\x00\xf0?\x00\x00\x00\x00\x00\x00\x00\x00v\xde\xdf6Y\xcb\xcf;\x00\x00\x00\x00\x00\x00\xf0?O$\xf1F\xf6\xda\xe3\x1e\x00\x00\x00\x00\x00\x00\x00\x00'
p295
tp296
bsg50
(lp297
F-0.5782100956542413
aF2.4196145647699883
aF4.484496797861269
aF-1.8225175289727629
aF-3.1956617059234516
aF-0.9173228697895192
aF4.3884128842734045
aF1.8095564690301364
aF-6.466537372491478
aF-3.3647049322591562
aF-0.34109886078150753
aF-0.5975502105688576
aF2.0666808354756103
aF0.8719370449111348
aF2.3583452844033252
aF1.7069047620061895
aF-3.062982325205074
aF-3.522544157538127
aF1.5333184862162486
aF-2.463556249445732
aF0.01405913653674331
aF0.5661834356956538
aF-2.231921108083553
aF-3.8390487919652236
aF2.106880280675901
aF-0.5938393904240353
aF-4.947477393310664
aF2.6292606189126997
aF-1.5528988083427255
aF0.02085694805537916
asg52
g9
(g10
(I0
tp298
g12
tp299
Rp300
(I1
(I1
I1
tp301
g19
I00
S'\x9b\xec\x83\xeb\xce\xf1\x12@'
p302
tp303
bsbag1
(g2
g3
Ntp304
Rp305
(dp306
g7
I1
sg8
g9
(g10
(I0
tp307
g12
tp308
Rp309
(I1
(I1
I6
tp310
g19
I00
S'\x82wgAZ\xac\x7f\xc0\xaf\x00\x8f\xfe\x94]\x8a\xc0\xe9\x175y\x08\x83\x8a@\xef\x86V\xc2%\x97\x86@\x7f\x1fY\xee\xe4\x7ft\xc0\x89A\x00\xd6\xc7<~\xc0'
p311
tp312
bsg24
I4
sg25
I6
sg26
(lp313
(lp314
(lp315
F-0.335637500876891
aF2.4196145647699883
aF4.484496797861269
aF-1.8687321190292698
aF-3.1956617059234516
aF-0.6472915312682419
aa(lp316
F4.403216577135294
aF1.8095564690301364
aF-6.195777069957548
aF-3.6027578348520772
aF0.0987554568942629
aF-0.8915224076290691
aa(lp317
F2.0666808354756103
aF0.8719370449111348
aF2.3037063101160413
aF1.7069047620061895
aF-3.3457165076556965
aF-3.522544157538127
aa(lp318
F1.2299045046796857
aF-2.463556249445732
aF0.01405913653674331
aF0.5661834356956538
aF-2.4059339242136555
aF-3.7083641597898906
aaa(lp319
(lp320
F1.9271721076992723
aa(lp321
F-0.5938393904240353
aa(lp322
F-4.947477393310664
aa(lp323
F2.6043090244730434
aa(lp324
F-1.5528988083427255
aa(lp325
F0.02085694805537916
aaasg40
g319
sg41
g314
sg42
I195
sg43
g9
(g10
(I0
tp326
g12
tp327
Rp328
(I1
(I1
I6
tp329
g19
I00
S'\x95\xa6\xde\xe6=\x7f=\x12\x00\x00\x00\x00\x00\x00\x00\x00\x00\x00\x00\x00\x00\x00\xf0?\x00\x00\x00\x00\x00\x00\xf0?\xef\x06bt\x17\xf7["\xc66\xb6n)JP\x14'
p330
tp331
bsg50
(lp332
F-0.335637500876891
aF2.4196145647699883
aF4.484496797861269
aF-1.8687321190292698
aF-3.1956617059234516
aF-0.6472915312682419
aF4.403216577135294
aF1.8095564690301364
aF-6.195777069957548
aF-3.6027578348520772
aF0.0987554568942629
aF-0.8915224076290691
aF2.0666808354756103
aF0.8719370449111348
aF2.3037063101160413
aF1.7069047620061895
aF-3.3457165076556965
aF-3.522544157538127
aF1.2299045046796857
aF-2.463556249445732
aF0.01405913653674331
aF0.5661834356956538
aF-2.4059339242136555
aF-3.7083641597898906
aF1.9271721076992723
aF-0.5938393904240353
aF-4.947477393310664
aF2.6043090244730434
aF-1.5528988083427255
aF0.02085694805537916
asg52
g9
(g10
(I0
tp333
g12
tp334
Rp335
(I1
(I1
I1
tp336
g19
I00
S'\x19o\xc9\x0e\xcf\xbe\x02\xc0'
p337
tp338
bsbag1
(g2
g3
Ntp339
Rp340
(dp341
g7
I1
sg8
g9
(g10
(I0
tp342
g12
tp343
Rp344
(I1
(I1
I6
tp345
g19
I00
S'g!\xe7e\x15\x06w@\xb2h\xa0D\x94P\x91\xc0Ll\x7fL\xd9VH\xc0\xf8D\xfa\xf5\xb0W\x87@\\\xec-a\xb1cx\xc0\xc2\x85\x84\x93`B\x93\xc0'
p346
tp347
bsg24
I4
sg25
I6
sg26
(lp348
(lp349
(lp350
F-0.4083555399458262
aF2.4196145647699883
aF4.484496797861269
aF-1.9162761036269313
aF-3.419966493538168
aF-0.712387232562623
aa(lp351
F4.3884128842734045
aF1.8095564690301364
aF-6.466537372491478
aF-3.6027578348520772
aF-0.18374187108003354
aF-0.8722930599372696
aa(lp352
F1.9628974941731407
aF0.5972698618898955
aF2.3037063101160413
aF1.7062233650904537
aF-3.0462053040865267
aF-3.522544157538127
aa(lp353
F1.5333184862162486
aF-2.463556249445732
aF0.01405913653674331
aF0.5661834356956538
aF-2.231921108083553
aF-3.9251891801405754
aaa(lp354
(lp355
F1.9271721076992723
aa(lp356
F-0.5938393904240353
aa(lp357
F-4.915402235879751
aa(lp358
F2.8492992189624595
aa(lp359
F-1.6054025529808351
aa(lp360
F0.3155651124620009
aaasg40
g354
sg41
g349
sg42
I25188
sg43
g9
(g10
(I0
tp361
g12
tp362
Rp363
(I1
(I1
I6
tp364
g19
I00
S'\x00\x00\x00\x00\x00\x00\xf0?\x00\x00\x00\x00\x00\x00\x00\x00\xf5\xdb\xd3\xe3OQ\x8b;\x00\x00\x00\x00\x00\x00\xf0?\x8db9\x88\x8a-\xc0\x1c\x00\x00\x00\x00\x00\x00\x00\x00'
p365
tp366
bsg50
(lp367
F-0.4083555399458262
aF2.4196145647699883
aF4.484496797861269
aF-1.9162761036269313
aF-3.419966493538168
aF-0.712387232562623
aF4.3884128842734045
aF1.8095564690301364
aF-6.466537372491478
aF-3.6027578348520772
aF-0.18374187108003354
aF-0.8722930599372696
aF1.9628974941731407
aF0.5972698618898955
aF2.3037063101160413
aF1.7062233650904537
aF-3.0462053040865267
aF-3.522544157538127
aF1.5333184862162486
aF-2.463556249445732
aF0.01405913653674331
aF0.5661834356956538
aF-2.231921108083553
aF-3.9251891801405754
aF1.9271721076992723
aF-0.5938393904240353
aF-4.915402235879751
aF2.8492992189624595
aF-1.6054025529808351
aF0.3155651124620009
asg52
g9
(g10
(I0
tp368
g12
tp369
Rp370
(I1
(I1
I1
tp371
g19
I00
S'\xec,\xa9L\x1b\x1b\x13@'
p372
tp373
bsba.