(lp0
ccopy_reg
_reconstructor
p1
(c__main__
Neural_Network
p2
c__builtin__
object
p3
Ntp4
Rp5
(dp6
S'output_layer_size'
p7
I1
sS'z2'
p8
cnumpy.core.multiarray
_reconstruct
p9
(cnumpy
ndarray
p10
(I0
tp11
S'b'
p12
tp13
Rp14
(I1
(I1
I6
tp15
cnumpy
dtype
p16
(S'f8'
p17
I0
I1
tp18
Rp19
(I3
S'<'
p20
NNNI-1
I-1
I0
tp21
bI00
S'\xb0\x97MP\xc3\x19\x86\xc0\x17\xd8\xd3\xb1\xf9q|\xc0\xd6]<\x94\xdb\xf6\x8b@^\x12p\xa6[*\x83@\x12R\x9bM4\xfeB@\x84\x9a\xfb\xadg\n`@'
p22
tp23
bsS'input_layer_size'
p24
I4
sS'hidden_layer_size'
p25
I6
sS'weights'
p26
(lp27
(lp28
(lp29
F-0.601800868797228
aF2.4196145647699883
aF4.6386649621982246
aF-1.8329683745096284
aF-3.2387622745347184
aF-0.9788105732611736
aa(lp30
F4.560729208986404
aF1.9292558662676536
aF-6.368093642951161
aF-3.3488029235773444
aF0.0706133278330993
aF-1.0755781605295436
aa(lp31
F2.0795511811466905
aF0.6041714959972201
aF2.284435868952543
aF1.659230925813688
aF-3.090406959370694
aF-3.206345948209917
aa(lp32
F1.5333184862162486
aF-2.345633476200457
aF0.01405913653674331
aF0.9883995068004948
aF-2.4603871799342167
aF-3.732898609981391
aaa(lp33
(lp34
F1.7186744159773273
aa(lp35
F-0.031104471593944527
aa(lp36
F-4.866108158581768
aa(lp37
F2.4776332637098837
aa(lp38
F-1.5528988083427255
aa(lp39
F0.02085694805537916
aaasS'W2'
p40
g33
sS'W1'
p41
g28
sS'fitness'
p42
I193
sS'a2'
p43
g9
(g10
(I0
tp44
g12
tp45
Rp46
(I1
(I1
I6
tp47
g19
I00
S'xs\xdb\xea\xaf\xee)\x00\xf3\x04\t\x98e\x0c\xe5\x16\x00\x00\x00\x00\x00\x00\xf0?\x00\x00\x00\x00\x00\x00\xf0?\x00\x00\x00\x00\x00\x00\xf0?\x00\x00\x00\x00\x00\x00\xf0?'
p48
tp49
bsS'chromosome'
p50
(lp51
F-0.601800868797228
aF2.4196145647699883
aF4.6386649621982246
aF-1.8329683745096284
aF-3.2387622745347184
aF-0.9788105732611736
aF4.560729208986404
aF1.9292558662676536
aF-6.368093642951161
aF-3.3488029235773444
aF0.0706133278330993
aF-1.0755781605295436
aF2.0795511811466905
aF0.6041714959972201
aF2.284435868952543
aF1.659230925813688
aF-3.090406959370694
aF-3.206345948209917
aF1.5333184862162486
aF-2.345633476200457
aF0.01405913653674331
aF0.9883995068004948
aF-2.4603871799342167
aF-3.732898609981391
aF1.7186744159773273
aF-0.031104471593944527
aF-4.866108158581768
aF2.4776332637098837
aF-1.5528988083427255
aF0.02085694805537916
asS'z3'
p52
g9
(g10
(I0
tp53
g12
tp54
Rp55
(I1
(I1
I1
tp56
g19
I00
S'\xa8\xa1v\xe37]\x0f\xc0'
p57
tp58
bsbag1
(g2
g3
Ntp59
Rp60
(dp61
g7
I1
sg8
g9
(g10
(I0
tp62
g12
tp63
Rp64
(I1
(I1
I6
tp65
g19
I00
S')5\x8a\xa6G\x8ew@\x06\xe4wX\xcaJ\x91\xc0X\x18\xd1\x17\x94[J\xc0\x8a\x9d\xd2\xfd\xcd\xe9\x87@\x80>\xe4\xbf\xa2\xef|\xc0c8\xf2>p\xb2\x90\xc0'
p66
tp67
bsg24
I4
sg25
I6
sg26
(lp68
(lp69
(lp70
F-0.45438180340137335
aF2.4196145647699883
aF4.484496797861269
aF-1.8329683745096284
aF-3.280711181180462
aF-0.9788105732611736
aa(lp71
F4.832763912520448
aF1.9292558662676536
aF-6.455411838893929
aF-3.438063064151415
aF0.0706133278330993
aF-1.066365054199786
aa(lp72
F1.914180112293461
aF0.2647092751796302
aF2.3037063101160413
aF1.8487057126189987
aF-3.1540636996984794
aF-2.919962563938353
aa(lp73
F1.5333184862162486
aF-2.345633476200457
aF0.01405913653674331
aF0.6184653331188205
aF-2.2525705963965956
aF-3.542810006022873
aaa(lp74
(lp75
F1.9481314438951922
aa(lp76
F-0.27279495822054745
aa(lp77
F-5.0250264812624374
aa(lp78
F2.5379632984251144
aa(lp79
F-1.8794067542273014
aa(lp80
F-0.030759901401804013
aaasg40
g74
sg41
g69
sg42
I2145
sg43
g9
(g10
(I0
tp81
g12
tp82
Rp83
(I1
(I1
I6
tp84
g19
I00
S'\x00\x00\x00\x00\x00\x00\xf0?\x00\x00\x00\x00\x00\x00\x00\x000\x8f\xb3\xb80\xdc.;\x00\x00\x00\x00\x00\x00\xf0?56\xa5\x90\xe2\xbc0\x16\x00\x00\x00\x00\x00\x00\x00\x00'
p85
tp86
bsg50
(lp87
F-0.45438180340137335
aF2.4196145647699883
aF4.484496797861269
aF-1.8329683745096284
aF-3.280711181180462
aF-0.9788105732611736
aF4.832763912520448
aF1.9292558662676536
aF-6.455411838893929
aF-3.438063064151415
aF0.0706133278330993
aF-1.066365054199786
aF1.914180112293461
aF0.2647092751796302
aF2.3037063101160413
aF1.8487057126189987
aF-3.1540636996984794
aF-2.919962563938353
aF1.5333184862162486
aF-2.345633476200457
aF0.01405913653674331
aF0.6184653331188205
aF-2.2525705963965956
aF-3.542810006022873
aF1.9481314438951922
aF-0.27279495822054745
aF-5.0250264812624374
aF2.5379632984251144
aF-1.8794067542273014
aF-0.030759901401804013
asg52
g9
(g10
(I0
tp88
g12
tp89
Rp90
(I1
(I1
I1
tp91
g19
I00
S'\xd2\x17\xf4\xd1\xc2\xf1\x11@'
p92
tp93
bsbag1
(g2
g3
Ntp94
Rp95
(dp96
g7
I1
sg8
g9
(g10
(I0
tp97
g12
tp98
Rp99
(I1
(I1
I6
tp100
g19
I00
S'\x11\xcf\x05~wv}@yr\x06f;M\x92\xc0\xc2\x7fw\x11D\x07J\xc0\xf9\xb6-\xc7\xac1\x88@\x86\xea\xb2\x86$\x9a~\xc0\xb8\x04\xdf-\x9a5\x93\xc0'
p101
tp102
bsg24
I4
sg25
I6
sg26
(lp103
(lp104
(lp105
F-0.6645569960807399
aF2.4196145647699883
aF4.484496797861269
aF-1.8329683745096284
aF-3.2505899998898657
aF-0.7641497615754926
aa(lp106
F4.560729208986404
aF1.9292558662676536
aF-6.455411838893929
aF-3.438063064151415
aF-0.04469087504467159
aF-1.066365054199786
aa(lp107
F1.9361909814005192
aF0.4033182136123765
aF2.3037063101160413
aF1.8487057126189987
aF-3.1540636996984794
aF-3.168878567070402
aa(lp108
F1.5333184862162486
aF-2.345633476200457
aF0.01405913653674331
aF0.5852839596795896
aF-2.1212855257717176
aF-3.542810006022873
aaa(lp109
(lp110
F2.085047793467356
aa(lp111
F-0.10747887180693796
aa(lp112
F-5.0250264812624374
aa(lp113
F2.5379632984251144
aa(lp114
F-1.649285655264251
aa(lp115
F-0.030759901401804013
aaasg40
g109
sg41
g104
sg42
I4845
sg43
g9
(g10
(I0
tp116
g12
tp117
Rp118
(I1
(I1
I6
tp119
g19
I00
S'\x00\x00\x00\x00\x00\x00\xf0?\x00\x00\x00\x00\x00\x00\x00\x000#\xfa\x04\xa0\xd0=;\x00\x00\x00\x00\x00\x00\xf0?u*\x00U\x0fa\xc8\x13\x00\x00\x00\x00\x00\x00\x00\x00'
p120
tp121
bsg50
(lp122
F-0.6645569960807399
aF2.4196145647699883
aF4.484496797861269
aF-1.8329683745096284
aF-3.2505899998898657
aF-0.7641497615754926
aF4.560729208986404
aF1.9292558662676536
aF-6.455411838893929
aF-3.438063064151415
aF-0.04469087504467159
aF-1.066365054199786
aF1.9361909814005192
aF0.4033182136123765
aF2.3037063101160413
aF1.8487057126189987
aF-3.1540636996984794
aF-3.168878567070402
aF1.5333184862162486
aF-2.345633476200457
aF0.01405913653674331
aF0.5852839596795896
aF-2.1212855257717176
aF-3.542810006022873
aF2.085047793467356
aF-0.10747887180693796
aF-5.0250264812624374
aF2.5379632984251144
aF-1.649285655264251
aF-0.030759901401804013
asg52
g9
(g10
(I0
tp123
g12
tp124
Rp125
(I1
(I1
I1
tp126
g19
I00
S'\xc6\xe4\xa2\x9e\xf6}\x12@'
p127
tp128
bsbag1
(g2
g3
Ntp129
Rp130
(dp131
g7
I1
sg8
g9
(g10
(I0
tp132
g12
tp133
Rp134
(I1
(I1
I6
tp135
g19
I00
S'X\x9e\x13Kh\xeby@\xf4\xe4P\xf1\x8f\xba\x92\xc0I:\xc8\xc6\xcd\xbdB\xc0\xa6,`\x055\xd9\x89@\xe2:\x80\xa2\xc9\xcf|\xc0NY/E\x82\x92\x92\xc0'
p136
tp137
bsg24
I4
sg25
I6
sg26
(lp138
(lp139
(lp140
F-0.45438180340137335
aF2.4196145647699883
aF4.479261082561183
aF-1.8329683745096284
aF-3.2114876720349117
aF-0.7552797384033741
aa(lp141
F4.560729208986404
aF1.9292558662676536
aF-6.368093642951161
aF-3.2610665312022844
aF0.055650496471698285
aF-1.1741997204391545
aa(lp142
F1.914180112293461
aF0.2647092751796302
aF2.1998232876625874
aF1.8568933318558059
aF-3.1540636996984794
aF-3.1474418137342868
aa(lp143
F1.5333184862162486
aF-2.4032354230558144
aF0.10836663167332597
aF0.8255029935461681
aF-2.081315009370304
aF-3.542810006022873
aaa(lp144
(lp145
F1.9321173266331864
aa(lp146
F-0.27279495822054745
aa(lp147
F-5.0250264812624374
aa(lp148
F2.5379632984251144
aa(lp149
F-1.649285655264251
aa(lp150
F0.03393010360247006
aaasg40
g144
sg41
g139
sg42
I1068
sg43
g9
(g10
(I0
tp151
g12
tp152
Rp153
(I1
(I1
I6
tp154
g19
I00
S'\x00\x00\x00\x00\x00\x00\xf0?\x00\x00\x00\x00\x00\x00\x00\x00\x13%\xc0\xc7\xf2Y\x8e<\x00\x00\x00\x00\x00\x00\xf0?s\xf2\xb5\x9c\x86\xa0^\x16\x00\x00\x00\x00\x00\x00\x00\x00'
p155
tp156
bsg50
(lp157
F-0.45438180340137335
aF2.4196145647699883
aF4.479261082561183
aF-1.8329683745096284
aF-3.2114876720349117
aF-0.7552797384033741
aF4.560729208986404
aF1.9292558662676536
aF-6.368093642951161
aF-3.2610665312022844
aF0.055650496471698285
aF-1.1741997204391545
aF1.914180112293461
aF0.2647092751796302
aF2.1998232876625874
aF1.8568933318558059
aF-3.1540636996984794
aF-3.1474418137342868
aF1.5333184862162486
aF-2.4032354230558144
aF0.10836663167332597
aF0.8255029935461681
aF-2.081315009370304
aF-3.542810006022873
aF1.9321173266331864
aF-0.27279495822054745
aF-5.0250264812624374
aF2.5379632984251144
aF-1.649285655264251
aF0.03393010360247006
asg52
g9
(g10
(I0
tp158
g12
tp159
Rp160
(I1
(I1
I1
tp161
g19
I00
S'?o\xbc\xd0\\\xe1\x11@'
p162
tp163
bsbag1
(g2
g3
Ntp164
Rp165
(dp166
g7
I1
sg8
g9
(g10
(I0
tp167
g12
tp168
Rp169
(I1
(I1
I6
tp170
g19
I00
S'\x16~i\x8f\xb9:\x86\xc0\xe6\xcb\xa0\xc9H;|\xc0;\xfd\xb4\xa5\xe8\xd4\x8b@\xa9\xc5I )\x1f\x84@&1oe\x96CM@gR\x06\x08?\xfca@'
p171
tp172
bsg24
I4
sg25
I6
sg26
(lp173
(lp174
(lp175
F-0.601800868797228
aF2.4196145647699883
aF4.484496797861269
aF-1.8329683745096284
aF-3.2505899998898657
aF-0.9272001999766581
aa(lp176
F4.560729208986404
aF1.9292558662676536
aF-6.455411838893929
aF-3.6833598462568387
aF0.0706133278330993
aF-1.066365054199786
aa(lp177
F1.914180112293461
aF0.2647092751796302
aF2.2183036103929896
aF1.8487057126189987
aF-3.1540636996984794
aF-3.0320141693342504
aa(lp178
F1.5211446488073626
aF-2.186735124123984
aF0.01405913653674331
aF0.6184653331188205
aF-2.4633827579132492
aF-3.542810006022873
aaa(lp179
(lp180
F1.9481314438951922
aa(lp181
F-0.27279495822054745
aa(lp182
F-5.0250264812624374
aa(lp183
F2.5379632984251144
aa(lp184
F-1.649285655264251
aa(lp185
F-0.030759901401804013
aaasg40
g179
sg41
g174
sg42
I555
sg43
g9
(g10
(I0
tp186
g12
tp187
Rp188
(I1
(I1
I6
tp189
g19
I00
S'\x00\x00\x00\x00\x00\x00\x00\x00w\xd2Na2\x124\x17\x00\x00\x00\x00\x00\x00\xf0?\x00\x00\x00\x00\x00\x00\xf0?\x00\x00\x00\x00\x00\x00\xf0?\x00\x00\x00\x00\x00\x00\xf0?'
p190
tp191
bsg50
(lp192
F-0.601800868797228
aF2.4196145647699883
aF4.484496797861269
aF-1.8329683745096284
aF-3.2505899998898657
aF-0.9272001999766581
aF4.560729208986404
aF1.9292558662676536
aF-6.455411838893929
aF-3.6833598462568387
aF0.0706133278330993
aF-1.066365054199786
aF1.914180112293461
aF0.2647092751796302
aF2.2183036103929896
aF1.8487057126189987
aF-3.1540636996984794
aF-3.0320141693342504
aF1.5211446488073626
aF-2.186735124123984
aF0.01405913653674331
aF0.6184653331188205
aF-2.4633827579132492
aF-3.542810006022873
aF1.9481314438951922
aF-0.27279495822054745
aF-5.0250264812624374
aF2.5379632984251144
aF-1.649285655264251
aF-0.030759901401804013
asg52
g9
(g10
(I0
tp193
g12
tp194
Rp195
(I1
(I1
I1
tp196
g19
I00
S'\xd2+\xac\x8d\x1e\xab\x10\xc0'
p197
tp198
bsbag1
(g2
g3
Ntp199
Rp200
(dp201
g7
I1
sg8
g9
(g10
(I0
tp202
g12
tp203
Rp204
(I1
(I1
I6
tp205
g19
I00
S'\x08\xc4=\x99\xdf\x9fp@\xde\x9b:\xae\xd9\x8e\x8b\xc0uz\xb5\xd5\xcf\xb0J\xc0l\xecT\x1d\x80\xed\x85@\xdb>]4\xb7To\xc0$\xa1K@\xd3\\\x87\xc0'
p206
tp207
bsg24
I4
sg25
I6
sg26
(lp208
(lp209
(lp210
F-0.601800868797228
aF2.4196145647699883
aF4.484496797861269
aF-1.8329683745096284
aF-3.2505899998898657
aF-0.9788105732611736
aa(lp211
F4.560729208986404
aF1.9292558662676536
aF-6.489993681618712
aF-3.438063064151415
aF0.0706133278330993
aF-1.066365054199786
aa(lp212
F1.914180112293461
aF0.2647092751796302
aF2.3037063101160413
aF1.7180968397694594
aF-3.1540636996984794
aF-3.168878567070402
aa(lp213
F1.5333184862162486
aF-2.345633476200457
aF0.01405913653674331
aF0.6474384901594978
aF-2.2525705963965956
aF-3.542810006022873
aaa(lp214
(lp215
F1.9906267506334534
aa(lp216
F-0.27279495822054745
aa(lp217
F-5.0250264812624374
aa(lp218
F2.5379632984251144
aa(lp219
F-1.649285655264251
aa(lp220
F-0.030759901401804013
aaasg40
g214
sg41
g209
sg42
I14205
sg43
g9
(g10
(I0
tp221
g12
tp222
Rp223
(I1
(I1
I6
tp224
g19
I00
S'\x00\x00\x00\x00\x00\x00\xf0?\x00\x00\x00\x00\x00\x00\x00\x00\xa1r\xd2 \x86\xb6\x1f;\x00\x00\x00\x00\x00\x00\xf0?e\xbc\x9d\xf7\xe6\xffT)\x00\x00\x00\x00\x00\x00\x00\x00'
p225
tp226
bsg50
(lp227
F-0.601800868797228
aF2.4196145647699883
aF4.484496797861269
aF-1.8329683745096284
aF-3.2505899998898657
aF-0.9788105732611736
aF4.560729208986404
aF1.9292558662676536
aF-6.489993681618712
aF-3.438063064151415
aF0.0706133278330993
aF-1.066365054199786
aF1.914180112293461
aF0.2647092751796302
aF2.3037063101160413
aF1.7180968397694594
aF-3.1540636996984794
aF-3.168878567070402
aF1.5333184862162486
aF-2.345633476200457
aF0.01405913653674331
aF0.6474384901594978
aF-2.2525705963965956
aF-3.542810006022873
aF1.9906267506334534
aF-0.27279495822054745
aF-5.0250264812624374
aF2.5379632984251144
aF-1.649285655264251
aF-0.030759901401804013
asg52
g9
(g10
(I0
tp228
g12
tp229
Rp230
(I1
(I1
I1
tp231
g19
I00
S'T\xca\xb6\xb5F\x1d\x12@'
p232
tp233
bsbag1
(g2
g3
Ntp234
Rp235
(dp236
g7
I1
sg8
g9
(g10
(I0
tp237
g12
tp238
Rp239
(I1
(I1
I6
tp240
g19
I00
S']\xae\xf8\x9a}`r\xc0\x8f\xbc\xfd\x96F\x87\x91\xc0+v\xfb7\xd1W\x8c@1\xc4E\xae\xe1\x13\x88@\x94\xe2\x96.\x1b\xbe\x81\xc06\xbcjdpi\x8a\xc0'
p241
tp242
bsg24
I4
sg25
I6
sg26
(lp243
(lp244
(lp245
F-0.7117724337288225
aF2.2382784162029137
aF4.591005218572708
aF-1.929061187407823
aF-3.2505899998898657
aF-0.9788105732611736
aa(lp246
F4.560729208986404
aF1.9292558662676536
aF-6.455411838893929
aF-3.438063064151415
aF0.0706133278330993
aF-1.066365054199786
aa(lp247
F1.914180112293461
aF0.2647092751796302
aF2.1120273984993907
aF2.1027515566568504
aF-3.1540636996984794
aF-3.168878567070402
aa(lp248
F1.5333184862162486
aF-2.345633476200457
aF0.01405913653674331
aF0.6184653331188205
aF-2.2525705963965956
aF-3.542810006022873
aaa(lp249
(lp250
F1.7739493330225342
aa(lp251
F-0.27279495822054745
aa(lp252
F-5.0250264812624374
aa(lp253
F2.5379632984251144
aa(lp254
F-1.5193050911558232
aa(lp255
F-0.20080397157409866
aaasg40
g249
sg41
g244
sg42
I2717
sg43
g9
(g10
(I0
tp256
g12
tp257
Rp258
(I1
(I1
I6
tp259
g19
I00
S'hu\x1fRv\xeck%\x00\x00\x00\x00\x00\x00\x00\x00\x00\x00\x00\x00\x00\x00\xf0?\x00\x00\x00\x00\x00\x00\xf0?\x85H\xe8A\x84\xaa\xbd\x0c\x00\x00\x00\x00\x00\x00\x00\x00'
p260
tp261
bsg50
(lp262
F-0.7117724337288225
aF2.2382784162029137
aF4.591005218572708
aF-1.929061187407823
aF-3.2505899998898657
aF-0.9788105732611736
aF4.560729208986404
aF1.9292558662676536
aF-6.455411838893929
aF-3.438063064151415
aF0.0706133278330993
aF-1.066365054199786
aF1.914180112293461
aF0.2647092751796302
aF2.1120273984993907
aF2.1027515566568504
aF-3.1540636996984794
aF-3.168878567070402
aF1.5333184862162486
aF-2.345633476200457
aF0.01405913653674331
aF0.6184653331188205
aF-2.2525705963965956
aF-3.542810006022873
aF1.7739493330225342
aF-0.27279495822054745
aF-5.0250264812624374
aF2.5379632984251144
aF-1.5193050911558232
aF-0.20080397157409866
asg52
g9
(g10
(I0
tp263
g12
tp264
Rp265
(I1
(I1
I1
tp266
g19
I00
S'\xcc\xf9\xcaa\x81\xe5\x03\xc0'
p267
tp268
bsbag1
(g2
g3
Ntp269
Rp270
(dp271
g7
I1
sg8
g9
(g10
(I0
tp272
g12
tp273
Rp274
(I1
(I1
I6
tp275
g19
I00
S'D\xb8\x00\xb9\x08]g@\xb9$\xeev\nK\x86\xc0$G\x0e\xf2\x8d\xb9J\xc0\x9ap\xec\xb8\xf1\xb1\x85@=\x97\x8cd6\x05c\xc0\x10\xe5\x17w\x1c\x14\x83\xc0'
p276
tp277
bsg24
I4
sg25
I6
sg26
(lp278
(lp279
(lp280
F-0.601800868797228
aF2.4196145647699883
aF4.484496797861269
aF-1.8687321190292698
aF-3.059345746507581
aF-0.7521766573248707
aa(lp281
F4.405935884331675
aF1.8095564690301364
aF-6.466537372491478
aF-3.6027578348520772
aF0.0706133278330993
aF-0.8722930599372696
aa(lp282
F2.0666808354756103
aF0.8719370449111348
aF2.3037063101160413
aF1.659230925813688
aF-3.0462053040865267
aF-3.522544157538127
aa(lp283
F1.5333184862162486
aF-2.6039709308240857
aF0.01405913653674331
aF0.8255029935461681
aF-2.4603871799342167
aF-3.7083641597898906
aaa(lp284
(lp285
F1.9271721076992723
aa(lp286
F-0.5938393904240353
aa(lp287
F-4.947477393310664
aa(lp288
F2.4669611158276243
aa(lp289
F-1.5528988083427255
aa(lp290
F0.02085694805537916
aaasg40
g284
sg41
g279
sg42
I2505
sg43
g9
(g10
(I0
tp291
g12
tp292
Rp293
(I1
(I1
I6
tp294
g19
I00
S'\x00\x00\x00\x00\x00\x00\xf0?\x00\x00\x00\x00\x00\x00\x00\x00\x9e|6#\x87\x9e\x1d;\x00\x00\x00\x00\x00\x00\xf0?\x8e\x0f\xc5\x1a\x80>62.\xe3\x04[\x02\x91\xe2\x08'
p295
tp296
bsg50
(lp297
F-0.601800868797228
aF2.4196145647699883
aF4.484496797861269
aF-1.8687321190292698
aF-3.059345746507581
aF-0.7521766573248707
aF4.405935884331675
aF1.8095564690301364
aF-6.466537372491478
aF-3.6027578348520772
aF0.0706133278330993
aF-0.8722930599372696
aF2.0666808354756103
aF0.8719370449111348
aF2.3037063101160413
aF1.659230925813688
aF-3.0462053040865267
aF-3.522544157538127
aF1.5333184862162486
aF-2.6039709308240857
aF0.01405913653674331
aF0.8255029935461681
aF-2.4603871799342167
aF-3.7083641597898906
aF1.9271721076992723
aF-0.5938393904240353
aF-4.947477393310664
aF2.4669611158276243
aF-1.5528988083427255
aF0.02085694805537916
asg52
g9
(g10
(I0
tp298
g12
tp299
Rp300
(I1
(I1
I1
tp301
g19
I00
S'\xa4B\xe5\xa8\x97\x93\x11@'
p302
tp303
bsbag1
(g2
g3
Ntp304
Rp305
(dp306
g7
I1
sg8
g9
(g10
(I0
tp307
g12
tp308
Rp309
(I1
(I1
I6
tp310
g19
I00
S'\xb9R\rA\x01ra@L?)\xe3&\x8a\x87\xc0<b\xe1\xc6j[I\xc0\xbe\x11\xa3U\xa8o\x86@\x1aO\x8f>\xf0\x00d\xc0\xd4h\xf9\xa9\x12\x18\x81\xc0'
p311
tp312
bsg24
I4
sg25
I6
sg26
(lp313
(lp314
(lp315
F-0.45438180340137335
aF2.4196145647699883
aF4.504127259677442
aF-1.8329683745096284
aF-2.9595729886570927
aF-0.9788105732611736
aa(lp316
F4.560729208986404
aF1.9292558662676536
aF-6.368093642951161
aF-3.600258141384903
aF0.0706133278330993
aF-0.7071844417306887
aa(lp317
F1.8184940367505205
aF0.30699820809094214
aF2.4511658578387228
aF1.659230925813688
aF-2.972557020426128
aF-3.085726738240332
aa(lp318
F1.5333184862162486
aF-2.533932884491905
aF0.01405913653674331
aF1.0390435422959805
aF-2.4603871799342167
aF-3.6348179471672806
aaa(lp319
(lp320
F1.7186744159773273
aa(lp321
F-0.27279495822054745
aa(lp322
F-5.0250264812624374
aa(lp323
F2.5379632984251144
aa(lp324
F-1.744353491021812
aa(lp325
F-0.22074862466138595
aaasg40
g319
sg41
g314
sg42
I2505
sg43
g9
(g10
(I0
tp326
g12
tp327
Rp328
(I1
(I1
I6
tp329
g19
I00
S'\x00\x00\x00\x00\x00\x00\xf0?\x00\x00\x00\x00\x00\x00\x00\x00\xf7j^+\x13\x8a\\;\x00\x00\x00\x00\x00\x00\xf0?\x94\x94/\x08Qw\x811F\xabR\xad\xdc~\x9c\x0e'
p330
tp331
bsg50
(lp332
F-0.45438180340137335
aF2.4196145647699883
aF4.504127259677442
aF-1.8329683745096284
aF-2.9595729886570927
aF-0.9788105732611736
aF4.560729208986404
aF1.9292558662676536
aF-6.368093642951161
aF-3.600258141384903
aF0.0706133278330993
aF-0.7071844417306887
aF1.8184940367505205
aF0.30699820809094214
aF2.4511658578387228
aF1.659230925813688
aF-2.972557020426128
aF-3.085726738240332
aF1.5333184862162486
aF-2.533932884491905
aF0.01405913653674331
aF1.0390435422959805
aF-2.4603871799342167
aF-3.6348179471672806
aF1.7186744159773273
aF-0.27279495822054745
aF-5.0250264812624374
aF2.5379632984251144
aF-1.744353491021812
aF-0.22074862466138595
asg52
g9
(g10
(I0
tp333
g12
tp334
Rp335
(I1
(I1
I1
tp336
g19
I00
S']\x1dy\t\xcc\x06\x11@'
p337
tp338
bsbag1
(g2
g3
Ntp339
Rp340
(dp341
g7
I1
sg8
g9
(g10
(I0
tp342
g12
tp343
Rp344
(I1
(I1
I6
tp345
g19
I00
S'\x8c\x10\x99.j\xeau@\xd5\xd3W]\xc7\x1b\x90\xc0\xc5\x07\xa1\x9b\xa4\x89E\xc0H\xc88\x15sO\x89@\xfa\xdd\xb0K\x14\x19x\xc0h`\x18\xa5X\xe8\x8d\xc0'
p346
tp347
bsg24
I4
sg25
I6
sg26
(lp348
(lp349
(lp350
F-0.5794407040903053
aF2.4196145647699883
aF4.479261082561183
aF-1.8329683745096284
aF-3.2505899998898657
aF-0.9788105732611736
aa(lp351
F4.664066304384118
aF1.9292558662676536
aF-6.571352228569787
aF-3.3488029235773444
aF-0.09559683554672636
aF-1.066365054199786
aa(lp352
F1.886844637541557
aF0.2647092751796302
aF2.3037063101160413
aF1.922600482659731
aF-3.1540636996984794
aF-2.955832426014727
aa(lp353
F1.5333184862162486
aF-2.345633476200457
aF0.01405913653674331
aF0.8622699410617896
aF-2.2525705963965956
aF-3.542810006022873
aaa(lp354
(lp355
F1.9481314438951922
aa(lp356
F-0.30615825138483194
aa(lp357
F-4.866108158581768
aa(lp358
F2.876496167353732
aa(lp359
F-1.5528988083427255
aa(lp360
F0.14369537184607128
aaasg40
g354
sg41
g349
sg42
I4665
sg43
g9
(g10
(I0
tp361
g12
tp362
Rp363
(I1
(I1
I6
tp364
g19
I00
S'\x00\x00\x00\x00\x00\x00\xf0?\x00\x00\x00\x00\x00\x00\x00\x00`\xad\xe6\xbe\xdd\xf2\x0c<\x00\x00\x00\x00\x00\x00\xf0?\x80\x8b\xd2\x00\xd2\xca*\x1d\x00\x00\x00\x00\x00\x00\x00\x00'
p365
tp366
bsg50
(lp367
F-0.5794407040903053
aF2.4196145647699883
aF4.479261082561183
aF-1.8329683745096284
aF-3.2505899998898657
aF-0.9788105732611736
aF4.664066304384118
aF1.9292558662676536
aF-6.571352228569787
aF-3.3488029235773444
aF-0.09559683554672636
aF-1.066365054199786
aF1.886844637541557
aF0.2647092751796302
aF2.3037063101160413
aF1.922600482659731
aF-3.1540636996984794
aF-2.955832426014727
aF1.5333184862162486
aF-2.345633476200457
aF0.01405913653674331
aF0.8622699410617896
aF-2.2525705963965956
aF-3.542810006022873
aF1.9481314438951922
aF-0.30615825138483194
aF-4.866108158581768
aF2.876496167353732
aF-1.5528988083427255
aF0.14369537184607128
asg52
g9
(g10
(I0
tp368
g12
tp369
Rp370
(I1
(I1
I1
tp371
g19
I00
S'\\\xc56.kL\x13@'
p372
tp373
bsba.