(lp0
ccopy_reg
_reconstructor
p1
(c__main__
Neural_Network
p2
c__builtin__
object
p3
Ntp4
Rp5
(dp6
S'output_layer_size'
p7
I1
sS'z2'
p8
cnumpy.core.multiarray
_reconstruct
p9
(cnumpy
ndarray
p10
(I0
tp11
S'b'
p12
tp13
Rp14
(I1
(I1
I6
tp15
cnumpy
dtype
p16
(S'f8'
p17
I0
I1
tp18
Rp19
(I3
S'<'
p20
NNNI-1
I-1
I0
tp21
bI00
S'D\xfe>\xb40\xd1|@6L"xE\xd4\x94\xc0\xa0\x82\xcdrl\x949\xc0\x9cm\xb0p\xcc\xc3\x82@x\x0f\xec+\x1e\xaf\x81\xc0\xb41\xb2\xbc\xed\xba\x97\xc0'
p22
tp23
bsS'input_layer_size'
p24
I4
sS'hidden_layer_size'
p25
I6
sS'weights'
p26
(lp27
(lp28
(lp29
F-0.030263970647622776
aF2.6677993536587827
aF4.598555262249743
aF-2.0527545433485073
aF-2.9849618649019436
aF-0.9298250519143155
aa(lp30
F4.183822791003137
aF1.7035846248749076
aF-6.782978698240343
aF-3.4063131512641265
aF0.15024047830822196
aF-0.40106428016901463
aa(lp31
F1.709002262630357
aF1.2146075664994913
aF1.9442270294977992
aF2.1513588540254456
aF-3.055415199572179
aF-3.0620461819642664
aa(lp32
F1.407145675927713
aF-2.463556249445732
aF0.20650413854261152
aF-0.09088722580721581
aF-1.8534603180923819
aF-3.635966132782028
aaa(lp33
(lp34
F2.0105238137447756
aa(lp35
F-0.5356568810650345
aa(lp36
F-4.461835788746098
aa(lp37
F2.298646453366863
aa(lp38
F-1.7013631296415677
aa(lp39
F0.5664023717870467
aaasS'W2'
p40
g33
sS'W1'
p41
g28
sS'fitness'
p42
I164
sS'a2'
p43
g9
(g10
(I0
tp44
g12
tp45
Rp46
(I1
(I1
I6
tp47
g19
I00
S'\x00\x00\x00\x00\x00\x00\xf0?\x00\x00\x00\x00\x00\x00\x00\x00\x8c\x84\x0f\x05_\x1a\xa1=\x00\x00\x00\x00\x00\x00\xf0?=[rfG%\xe8\x0c\x00\x00\x00\x00\x00\x00\x00\x00'
p48
tp49
bsS'chromosome'
p50
(lp51
F-0.030263970647622776
aF2.6677993536587827
aF4.598555262249743
aF-2.0527545433485073
aF-2.9849618649019436
aF-0.9298250519143155
aF4.183822791003137
aF1.7035846248749076
aF-6.782978698240343
aF-3.4063131512641265
aF0.15024047830822196
aF-0.40106428016901463
aF1.709002262630357
aF1.2146075664994913
aF1.9442270294977992
aF2.1513588540254456
aF-3.055415199572179
aF-3.0620461819642664
aF1.407145675927713
aF-2.463556249445732
aF0.20650413854261152
aF-0.09088722580721581
aF-1.8534603180923819
aF-3.635966132782028
aF2.0105238137447756
aF-0.5356568810650345
aF-4.461835788746098
aF2.298646453366863
aF-1.7013631296415677
aF0.5664023717870467
asS'z3'
p52
g9
(g10
(I0
tp53
g12
tp54
Rp55
(I1
(I1
I1
tp56
g19
I00
S'\xd0\xf6g!\x97<\x11@'
p57
tp58
bsbag1
(g2
g3
Ntp59
Rp60
(dp61
g7
I1
sg8
g9
(g10
(I0
tp62
g12
tp63
Rp64
(I1
(I1
I6
tp65
g19
I00
S'\xdc\xfa\xee)R\xd1u@P;[Xy*\x92\xc0l\xde\xe1\x132D1\xc0<\x8f\xf7\x86[\xe9\x82@n\x18\x04\xb2\xb1c{\xc0Vs\nR\xbd\x9a\x93\xc0'
p66
tp67
bsg24
I4
sg25
I6
sg26
(lp68
(lp69
(lp70
F-0.037784447399053345
aF2.516780404612401
aF4.598555262249743
aF-2.011895885775517
aF-2.9849618649019436
aF-0.9739855040632549
aa(lp71
F4.183822791003137
aF1.8443168499021105
aF-6.782978698240343
aF-3.651982512603156
aF0.2622760308672305
aF-0.40106428016901463
aa(lp72
F1.709002262630357
aF1.2146075664994913
aF1.9442270294977992
aF2.1513588540254456
aF-3.055415199572179
aF-3.0620461819642664
aa(lp73
F1.407145675927713
aF-2.463556249445732
aF0.23084930076947568
aF-0.09088722580721581
aF-1.8534603180923819
aF-3.635966132782028
aaa(lp74
(lp75
F2.0105238137447756
aa(lp76
F-0.6739400288552836
aa(lp77
F-4.461835788746098
aa(lp78
F2.298646453366863
aa(lp79
F-1.7013631296415677
aa(lp80
F0.28079208024671176
aaasg40
g74
sg41
g69
sg42
I706
sg43
g9
(g10
(I0
tp81
g12
tp82
Rp83
(I1
(I1
I6
tp84
g19
I00
S'\x00\x00\x00\x00\x00\x00\xf0?\x00\x00\x00\x00\x00\x00\x00\x00\x90\x1a\xe7\\A\x07a>\x00\x00\x00\x00\x00\x00\xf0?\x85Jv\x12\xc27k\x18\x00\x00\x00\x00\x00\x00\x00\x00'
p85
tp86
bsg50
(lp87
F-0.037784447399053345
aF2.516780404612401
aF4.598555262249743
aF-2.011895885775517
aF-2.9849618649019436
aF-0.9739855040632549
aF4.183822791003137
aF1.8443168499021105
aF-6.782978698240343
aF-3.651982512603156
aF0.2622760308672305
aF-0.40106428016901463
aF1.709002262630357
aF1.2146075664994913
aF1.9442270294977992
aF2.1513588540254456
aF-3.055415199572179
aF-3.0620461819642664
aF1.407145675927713
aF-2.463556249445732
aF0.23084930076947568
aF-0.09088722580721581
aF-1.8534603180923819
aF-3.635966132782028
aF2.0105238137447756
aF-0.6739400288552836
aF-4.461835788746098
aF2.298646453366863
aF-1.7013631296415677
aF0.28079208024671176
asg52
g9
(g10
(I0
tp88
g12
tp89
Rp90
(I1
(I1
I1
tp91
g19
I00
S'nF\xe9\x17\x97<\x11@'
p92
tp93
bsbag1
(g2
g3
Ntp94
Rp95
(dp96
g7
I1
sg8
g9
(g10
(I0
tp97
g12
tp98
Rp99
(I1
(I1
I6
tp100
g19
I00
S'i\xcc\x9b\xdd1\xe5s\xc0\xf8T/\x90_\xc9\x90\xc0!Cp\xa6\xb9\x80\x8d@*\xfe\xf4\xb6\xf6\xf2\x83@\x90gf\xab&wx\xc0ET5:\xacb\x8b\xc0'
p101
tp102
bsg24
I4
sg25
I6
sg26
(lp103
(lp104
(lp105
F-0.03455102606920201
aF2.516780404612401
aF4.598555262249743
aF-2.011895885775517
aF-2.9849618649019436
aF-0.9013555551152063
aa(lp106
F4.261056511275569
aF1.7035846248749076
aF-6.782978698240343
aF-3.4063131512641265
aF0.43955070870016516
aF-0.5383146069472112
aa(lp107
F1.709002262630357
aF1.4439968345783833
aF2.1689539389657497
aF2.1513588540254456
aF-2.846679619629269
aF-3.0620461819642664
aa(lp108
F1.407145675927713
aF-2.463556249445732
aF0.01405913653674331
aF0.20010519593226667
aF-1.5754639356986186
aF-3.635966132782028
aaa(lp109
(lp110
F2.0105238137447756
aa(lp111
F-0.5330336679168587
aa(lp112
F-4.461835788746098
aa(lp113
F2.298646453366863
aa(lp114
F-1.7013631296415677
aa(lp115
F0.5664023717870467
aaasg40
g109
sg41
g104
sg42
I20895
sg43
g9
(g10
(I0
tp116
g12
tp117
Rp118
(I1
(I1
I6
tp119
g19
I00
S'+\x92\x9b\xf6{\xfe:#\x00\x00\x00\x00\x00\x00\x00\x00\x00\x00\x00\x00\x00\x00\xf0?\x00\x00\x00\x00\x00\x00\xf0?\xc6\xdd\xb1\x1f\xc5-\xa3\x1c\x00\x00\x00\x00\x00\x00\x00\x00'
p120
tp121
bsg50
(lp122
F-0.03455102606920201
aF2.516780404612401
aF4.598555262249743
aF-2.011895885775517
aF-2.9849618649019436
aF-0.9013555551152063
aF4.261056511275569
aF1.7035846248749076
aF-6.782978698240343
aF-3.4063131512641265
aF0.43955070870016516
aF-0.5383146069472112
aF1.709002262630357
aF1.4439968345783833
aF2.1689539389657497
aF2.1513588540254456
aF-2.846679619629269
aF-3.0620461819642664
aF1.407145675927713
aF-2.463556249445732
aF0.01405913653674331
aF0.20010519593226667
aF-1.5754639356986186
aF-3.635966132782028
aF2.0105238137447756
aF-0.5330336679168587
aF-4.461835788746098
aF2.298646453366863
aF-1.7013631296415677
aF0.5664023717870467
asg52
g9
(g10
(I0
tp123
g12
tp124
Rp125
(I1
(I1
I1
tp126
g19
I00
S'\x0e\x14\xd456N\x01\xc0'
p127
tp128
bsbag1
(g2
g3
Ntp129
Rp130
(dp131
g7
I1
sg8
g9
(g10
(I0
tp132
g12
tp133
Rp134
(I1
(I1
I6
tp135
g19
I00
S'\xf2\xfa\xc5\x12\xcc\xf9\x84\xc0\xaec\xdd\xa2\x97F{\xc0\xa8x\xe4\xf0\xf9\xf3\x8d@\xf8_\xfd\xa9>-\x82@J`\x7f\xe9_o<@\x0e\x04t\xbc\xd5\xe2B@'
p136
tp137
bsg24
I4
sg25
I6
sg26
(lp138
(lp139
(lp140
F-0.08116841415565063
aF2.516780404612401
aF4.598555262249743
aF-2.011895885775517
aF-2.9849618649019436
aF-0.9739855040632549
aa(lp141
F4.183822791003137
aF1.7035846248749076
aF-6.782978698240343
aF-3.4136840989981208
aF0.2622760308672305
aF-0.40106428016901463
aa(lp142
F1.709002262630357
aF1.2146075664994913
aF1.9442270294977992
aF2.1513588540254456
aF-2.945082381624142
aF-3.0620461819642664
aa(lp143
F1.407145675927713
aF-2.463556249445732
aF0.06377737465647275
aF-0.09088722580721581
aF-2.0022142297549483
aF-3.635966132782028
aaa(lp144
(lp145
F2.0105238137447756
aa(lp146
F-0.6110277632115243
aa(lp147
F-4.461835788746098
aa(lp148
F2.298646453366863
aa(lp149
F-1.7013631296415677
aa(lp150
F0.5664023717870467
aaasg40
g144
sg41
g139
sg42
I6135
sg43
g9
(g10
(I0
tp151
g12
tp152
Rp153
(I1
(I1
I6
tp154
g19
I00
S'\xc2,\xbb\x16\xff\xb7h\x03\x87\xa6\xf6\x88c\xf9\x94\x18\x00\x00\x00\x00\x00\x00\xf0?\x00\x00\x00\x00\x00\x00\xf0?B\xf0\xff\xff\xff\xff\xef?\x00\x00\x00\x00\x00\x00\xf0?'
p155
tp156
bsg50
(lp157
F-0.08116841415565063
aF2.516780404612401
aF4.598555262249743
aF-2.011895885775517
aF-2.9849618649019436
aF-0.9739855040632549
aF4.183822791003137
aF1.7035846248749076
aF-6.782978698240343
aF-3.4136840989981208
aF0.2622760308672305
aF-0.40106428016901463
aF1.709002262630357
aF1.2146075664994913
aF1.9442270294977992
aF2.1513588540254456
aF-2.945082381624142
aF-3.0620461819642664
aF1.407145675927713
aF-2.463556249445732
aF0.06377737465647275
aF-0.09088722580721581
aF-2.0022142297549483
aF-3.635966132782028
aF2.0105238137447756
aF-0.6110277632115243
aF-4.461835788746098
aF2.298646453366863
aF-1.7013631296415677
aF0.5664023717870467
asg52
g9
(g10
(I0
tp158
g12
tp159
Rp160
(I1
(I1
I1
tp161
g19
I00
S'j\xe1\x1d\x84\x9cb\n\xc0'
p162
tp163
bsbag1
(g2
g3
Ntp164
Rp165
(dp166
g7
I1
sg8
g9
(g10
(I0
tp167
g12
tp168
Rp169
(I1
(I1
I6
tp170
g19
I00
S'\x87?g\xa3\x9f0u\xc0\xa0\x96\x15\xe5O`\x87\xc0\xcf*\xe8\xf5a\xf8\x90@\x16\xd3\xe20-Z\x86@\xc4K\x0f\x94\xe7\xc5y\xc0n\x816\xe4l\xdd\x87\xc0'
p171
tp172
bsg24
I4
sg25
I6
sg26
(lp173
(lp174
(lp175
F-0.08116841415565063
aF2.3123690961874237
aF4.827445376349465
aF-2.011895885775517
aF-2.9849618649019436
aF-0.6839228580369721
aa(lp176
F4.183822791003137
aF1.7035846248749076
aF-6.782978698240343
aF-3.4063131512641265
aF0.0029843476750888165
aF-0.2848703310460949
aa(lp177
F1.709002262630357
aF1.2146075664994913
aF1.9442270294977992
aF2.4361400386967182
aF-3.055415199572179
aF-3.0620461819642664
aa(lp178
F1.407145675927713
aF-2.463556249445732
aF0.06377737465647275
aF-0.09088722580721581
aF-1.8534603180923819
aF-3.635966132782028
aaa(lp179
(lp180
F2.168777386259177
aa(lp181
F-0.6110277632115243
aa(lp182
F-4.461835788746098
aa(lp183
F2.298646453366863
aa(lp184
F-1.7013631296415677
aa(lp185
F0.5664023717870467
aaasg40
g179
sg41
g174
sg42
I174
sg43
g9
(g10
(I0
tp186
g12
tp187
Rp188
(I1
(I1
I6
tp189
g19
I00
S'\xa5\xd4u\x0e\xe7>]!\x00\x00\x00\x00\x00\x00\x00\x00\x00\x00\x00\x00\x00\x00\xf0?\x00\x00\x00\x00\x00\x00\xf0?\xb4\x17\x88\x05A\xe1\xc0\x1a\x00\x00\x00\x00\x00\x00\x00\x00'
p190
tp191
bsg50
(lp192
F-0.08116841415565063
aF2.3123690961874237
aF4.827445376349465
aF-2.011895885775517
aF-2.9849618649019436
aF-0.6839228580369721
aF4.183822791003137
aF1.7035846248749076
aF-6.782978698240343
aF-3.4063131512641265
aF0.0029843476750888165
aF-0.2848703310460949
aF1.709002262630357
aF1.2146075664994913
aF1.9442270294977992
aF2.4361400386967182
aF-3.055415199572179
aF-3.0620461819642664
aF1.407145675927713
aF-2.463556249445732
aF0.06377737465647275
aF-0.09088722580721581
aF-1.8534603180923819
aF-3.635966132782028
aF2.168777386259177
aF-0.6110277632115243
aF-4.461835788746098
aF2.298646453366863
aF-1.7013631296415677
aF0.5664023717870467
asg52
g9
(g10
(I0
tp193
g12
tp194
Rp195
(I1
(I1
I1
tp196
g19
I00
S'\x0e\x14\xd456N\x01\xc0'
p197
tp198
bsbag1
(g2
g3
Ntp199
Rp200
(dp201
g7
I1
sg8
g9
(g10
(I0
tp202
g12
tp203
Rp204
(I1
(I1
I6
tp205
g19
I00
S',\xc6#-H\x91\x81\xc0\xae\xb3\xec[K!\x86\xc0\x1a\xe6B\xb8\x9c\x10\x8e@t\x81\xb8\\L\xe7\x80@\x0e\x80\\F/\x18r\xc0G\x0cN\x81P\x80|\xc0'
p206
tp207
bsg24
I4
sg25
I6
sg26
(lp208
(lp209
(lp210
F-0.27319246267494013
aF2.1626153090439364
aF4.703967023909192
aF-1.7164315035138356
aF-2.838807795895241
aF-1.11223540025893
aa(lp211
F4.749163059043158
aF1.3968607342603252
aF-6.914479569906854
aF-3.223748528723336
aF0.21975875281752139
aF-0.6053548503035637
aa(lp212
F1.8349040259665195
aF1.2146075664994913
aF2.1119130915000177
aF1.997315497983452
aF-3.039850443216086
aF-3.3212315201628146
aa(lp213
F1.2264455268774428
aF-2.1145553288049332
aF0.01405913653674331
aF-0.023466937829806078
aF-2.0189072489799953
aF-3.369722384452719
aaa(lp214
(lp215
F1.8539939951147513
aa(lp216
F-0.7011707492296068
aa(lp217
F-4.402600697014168
aa(lp218
F2.0710284119415605
aa(lp219
F-1.4825597348459152
aa(lp220
F0.2959820079326274
aaasg40
g214
sg41
g209
sg42
I195
sg43
g9
(g10
(I0
tp221
g12
tp222
Rp223
(I1
(I1
I6
tp224
g19
I00
S'\x861de\xd6n?\r\xb9\xb6\xea\xd9\x1b;\x14\x00\x00\x00\x00\x00\x00\x00\xf0?\x00\x00\x00\x00\x00\x00\xf0?\x1bRd\x7fH\x04\xd4%\xe5\xab\xf2\xb09.\xd1\x16'
p225
tp226
bsg50
(lp227
F-0.27319246267494013
aF2.1626153090439364
aF4.703967023909192
aF-1.7164315035138356
aF-2.838807795895241
aF-1.11223540025893
aF4.749163059043158
aF1.3968607342603252
aF-6.914479569906854
aF-3.223748528723336
aF0.21975875281752139
aF-0.6053548503035637
aF1.8349040259665195
aF1.2146075664994913
aF2.1119130915000177
aF1.997315497983452
aF-3.039850443216086
aF-3.3212315201628146
aF1.2264455268774428
aF-2.1145553288049332
aF0.01405913653674331
aF-0.023466937829806078
aF-2.0189072489799953
aF-3.369722384452719
aF1.8539939951147513
aF-0.7011707492296068
aF-4.402600697014168
aF2.0710284119415605
aF-1.4825597348459152
aF0.2959820079326274
asg52
g9
(g10
(I0
tp228
g12
tp229
Rp230
(I1
(I1
I1
tp231
g19
I00
S'\xb9,\xc5^\x0f\xa7\x02\xc0'
p232
tp233
bsbag1
(g2
g3
Ntp234
Rp235
(dp236
g7
I1
sg8
g9
(g10
(I0
tp237
g12
tp238
Rp239
(I1
(I1
I6
tp240
g19
I00
S'9V\x05\x0b\xbc9z@\xdf\xcbY{\x96\xd2\x94\xc0\xb8p\xa3\x80\x1c\xa3H\xc0\xa6\xeaY\xa2\xc2<\x82@A\xb1\xa4\xaf7\x05\x82\xc0D\xd4^~\xe70\x97\xc0'
p241
tp242
bsg24
I4
sg25
I6
sg26
(lp243
(lp244
(lp245
F-0.08116841415565063
aF2.682076673475024
aF4.598555262249743
aF-2.011895885775517
aF-2.9849618649019436
aF-1.0925468212479306
aa(lp246
F4.183822791003137
aF1.7035846248749076
aF-6.782978698240343
aF-3.4063131512641265
aF0.2622760308672305
aF-0.40106428016901463
aa(lp247
F1.709002262630357
aF1.2146075664994913
aF1.9442270294977992
aF2.2608056460942763
aF-3.055415199572179
aF-3.0620461819642664
aa(lp248
F1.407145675927713
aF-2.463556249445732
aF0.06377737465647275
aF-0.09088722580721581
aF-1.9421118085442592
aF-3.7365721358991477
aaa(lp249
(lp250
F2.0105238137447756
aa(lp251
F-0.3461308845826353
aa(lp252
F-4.461835788746098
aa(lp253
F2.298646453366863
aa(lp254
F-1.7013631296415677
aa(lp255
F0.5664023717870467
aaasg40
g249
sg41
g244
sg42
I61908
sg43
g9
(g10
(I0
tp256
g12
tp257
Rp258
(I1
(I1
I6
tp259
g19
I00
S'\x00\x00\x00\x00\x00\x00\xf0?\x00\x00\x00\x00\x00\x00\x00\x00\xc0(\t\x81R\x1c~;\x00\x00\x00\x00\x00\x00\xf0?h\x80\xca\xb5\xf2\xc1\xf0\x0b\x00\x00\x00\x00\x00\x00\x00\x00'
p260
tp261
bsg50
(lp262
F-0.08116841415565063
aF2.682076673475024
aF4.598555262249743
aF-2.011895885775517
aF-2.9849618649019436
aF-1.0925468212479306
aF4.183822791003137
aF1.7035846248749076
aF-6.782978698240343
aF-3.4063131512641265
aF0.2622760308672305
aF-0.40106428016901463
aF1.709002262630357
aF1.2146075664994913
aF1.9442270294977992
aF2.2608056460942763
aF-3.055415199572179
aF-3.0620461819642664
aF1.407145675927713
aF-2.463556249445732
aF0.06377737465647275
aF-0.09088722580721581
aF-1.9421118085442592
aF-3.7365721358991477
aF2.0105238137447756
aF-0.3461308845826353
aF-4.461835788746098
aF2.298646453366863
aF-1.7013631296415677
aF0.5664023717870467
asg52
g9
(g10
(I0
tp263
g12
tp264
Rp265
(I1
(I1
I1
tp266
g19
I00
S'o\x8fh!\x97<\x11@'
p267
tp268
bsbag1
(g2
g3
Ntp269
Rp270
(dp271
g7
I1
sg8
g9
(g10
(I0
tp272
g12
tp273
Rp274
(I1
(I1
I6
tp275
g19
I00
S'\xbfC\n\x93\x98\xf7\x81@\xe8\xedY\x044\x82\x94\xc0\x18\x1d\xe1:EP5\xc0\xc6\xbdYz\xc6l\x84@\x94\x9d15\x93\xf9\x85\xc0\x8f\xabA\x1a,[\x95\xc0'
p276
tp277
bsg24
I4
sg25
I6
sg26
(lp278
(lp279
(lp280
F-0.08116841415565063
aF2.516780404612401
aF4.598555262249743
aF-1.976001469343159
aF-2.9849618649019436
aF-0.9739855040632549
aa(lp281
F4.185726273983227
aF1.7035846248749076
aF-6.782978698240343
aF-3.4063131512641265
aF0.2622760308672305
aF-0.41414940275169915
aa(lp282
F1.9012254076105195
aF1.2844004750465114
aF2.2945718085170146
aF2.563133698216895
aF-3.242559011965199
aF-3.3576940136283047
aa(lp283
F1.6154437498360508
aF-2.463556249445732
aF0.19677941415972877
aF-0.004410733357377315
aF-2.1547390542884566
aF-3.1965155811071164
aaa(lp284
(lp285
F1.658016094646997
aa(lp286
F-0.6214947983542426
aa(lp287
F-4.719453551810044
aa(lp288
F2.298646453366863
aa(lp289
F-1.4827465670346582
aa(lp290
F0.5664023717870467
aaasg40
g284
sg41
g279
sg42
I524
sg43
g9
(g10
(I0
tp291
g12
tp292
Rp293
(I1
(I1
I6
tp294
g19
I00
S'\x00\x00\x00\x00\x00\x00\xf0?\x00\x00\x00\x00\x00\x00\x00\x00\xd1\x8b\xf4z\x7f\n\x03>\x00\x00\x00\x00\x00\x00\xf0?\xba&x\xde\n\xa6\x86\x00\x00\x00\x00\x00\x00\x00\x00\x00'
p295
tp296
bsg50
(lp297
F-0.08116841415565063
aF2.516780404612401
aF4.598555262249743
aF-1.976001469343159
aF-2.9849618649019436
aF-0.9739855040632549
aF4.185726273983227
aF1.7035846248749076
aF-6.782978698240343
aF-3.4063131512641265
aF0.2622760308672305
aF-0.41414940275169915
aF1.9012254076105195
aF1.2844004750465114
aF2.2945718085170146
aF2.563133698216895
aF-3.242559011965199
aF-3.3576940136283047
aF1.6154437498360508
aF-2.463556249445732
aF0.19677941415972877
aF-0.004410733357377315
aF-2.1547390542884566
aF-3.1965155811071164
aF1.658016094646997
aF-0.6214947983542426
aF-4.719453551810044
aF2.298646453366863
aF-1.4827465670346582
aF0.5664023717870467
asg52
g9
(g10
(I0
tp298
g12
tp299
Rp300
(I1
(I1
I1
tp301
g19
I00
S'y[N\xb1>\xa7\x0f@'
p302
tp303
bsbag1
(g2
g3
Ntp304
Rp305
(dp306
g7
I1
sg8
g9
(g10
(I0
tp307
g12
tp308
Rp309
(I1
(I1
I6
tp310
g19
I00
S'\n\x97\xcbn\xbf\xd4v@\x15\xa7\xd7\xe1U\x0c\x92\xc0\xef/\x04\xf2\xa0\x84D\xc0S\x9e\x11\x7f\xbf4\x86@]\x12\x845\x8e\xdez\xc0+\x12S\xed\xe1\x1e\x93\xc0'
p311
tp312
bsg24
I4
sg25
I6
sg26
(lp313
(lp314
(lp315
F0.3589522685736112
aF2.516780404612401
aF4.367355838972195
aF-2.25103293926326
aF-3.1504560370101533
aF-0.9739855040632549
aa(lp316
F4.185726273983227
aF1.7035846248749076
aF-6.608877516136791
aF-3.43592870449631
aF0.5350736278283093
aF-0.8317914367073008
aa(lp317
F1.9012254076105195
aF1.2146075664994913
aF2.1689539389657497
aF2.065782939280703
aF-3.2517028428743844
aF-3.353661015186232
aa(lp318
F1.6480068138152641
aF-2.463556249445732
aF0.01405913653674331
aF0.22139447823855432
aF-1.8534603180923819
aF-3.635966132782028
aaa(lp319
(lp320
F2.0105238137447756
aa(lp321
F-0.6110277632115243
aa(lp322
F-4.461835788746098
aa(lp323
F2.298646453366863
aa(lp324
F-1.7013631296415677
aa(lp325
F0.5664023717870467
aaasg40
g319
sg41
g314
sg42
I1068
sg43
g9
(g10
(I0
tp326
g12
tp327
Rp328
(I1
(I1
I6
tp329
g19
I00
S'\x00\x00\x00\x00\x00\x00\xf0?\x00\x00\x00\x00\x00\x00\x00\x00\xd7\xd9\xdd\x12a\xce;<\x00\x00\x00\x00\x00\x00\xf0?\x8f\xf6I\xa2xO+\x19\x00\x00\x00\x00\x00\x00\x00\x00'
p330
tp331
bsg50
(lp332
F0.3589522685736112
aF2.516780404612401
aF4.367355838972195
aF-2.25103293926326
aF-3.1504560370101533
aF-0.9739855040632549
aF4.185726273983227
aF1.7035846248749076
aF-6.608877516136791
aF-3.43592870449631
aF0.5350736278283093
aF-0.8317914367073008
aF1.9012254076105195
aF1.2146075664994913
aF2.1689539389657497
aF2.065782939280703
aF-3.2517028428743844
aF-3.353661015186232
aF1.6480068138152641
aF-2.463556249445732
aF0.01405913653674331
aF0.22139447823855432
aF-1.8534603180923819
aF-3.635966132782028
aF2.0105238137447756
aF-0.6110277632115243
aF-4.461835788746098
aF2.298646453366863
aF-1.7013631296415677
aF0.5664023717870467
asg52
g9
(g10
(I0
tp333
g12
tp334
Rp335
(I1
(I1
I1
tp336
g19
I00
S'o\x8fh!\x97<\x11@'
p337
tp338
bsbag1
(g2
g3
Ntp339
Rp340
(dp341
g7
I1
sg8
g9
(g10
(I0
tp342
g12
tp343
Rp344
(I1
(I1
I6
tp345
g19
I00
S'\xe3\xb2C\x98\xed~\x81\xc0\\\x8c\xe0\xcb\x11\x88\x89\xc0d\xbc\x91\x19+\xec\x8d@j\x8e\xe6`\xa6\x00\x80@\xc2-\x89<d\xdcr\xc0\x96\x93\xe5\x06\x82\xad|\xc0'
p346
tp347
bsg24
I4
sg25
I6
sg26
(lp348
(lp349
(lp350
F-0.2772049212201781
aF2.028339450141605
aF4.779001026538903
aF-1.6509273544879135
aF-2.8947219061292198
aF-1.0186493531700163
aa(lp351
F4.656222543544433
aF1.7585754164015621
aF-6.650948611801218
aF-3.411780695992853
aF0.21975875281752139
aF-0.7235391342270749
aa(lp352
F1.8349040259665195
aF1.2146075664994913
aF2.1119130915000177
aF1.9653454900309202
aF-2.978729063576149
aF-3.156521818885994
aa(lp353
F1.2264455268774428
aF-2.4617186192963634
aF0.01405913653674331
aF-0.39622855802514645
aF-2.022900177431985
aF-3.4593461590449177
aaa(lp354
(lp355
F1.7106432895899375
aa(lp356
F-0.6110277632115243
aa(lp357
F-4.585918870568777
aa(lp358
F2.298646453366863
aa(lp359
F-1.3664292065783235
aa(lp360
F0.6214770802512467
aaasg40
g354
sg41
g349
sg42
I194
sg43
g9
(g10
(I0
tp361
g12
tp362
Rp363
(I1
(I1
I6
tp364
g19
I00
S'6\xae\x14\xbfl{s\r\x00\x00\x00\x00\x00\x00\x00\x00\x00\x00\x00\x00\x00\x00\xf0?\x00\x00\x00\x00\x00\x00\xf0?\xa5\x02\x19cE\xc9\xb8$\x05\xa4<\x11[O\x90\x16'
p365
tp366
bsg50
(lp367
F-0.2772049212201781
aF2.028339450141605
aF4.779001026538903
aF-1.6509273544879135
aF-2.8947219061292198
aF-1.0186493531700163
aF4.656222543544433
aF1.7585754164015621
aF-6.650948611801218
aF-3.411780695992853
aF0.21975875281752139
aF-0.7235391342270749
aF1.8349040259665195
aF1.2146075664994913
aF2.1119130915000177
aF1.9653454900309202
aF-2.978729063576149
aF-3.156521818885994
aF1.2264455268774428
aF-2.4617186192963634
aF0.01405913653674331
aF-0.39622855802514645
aF-2.022900177431985
aF-3.4593461590449177
aF1.7106432895899375
aF-0.6110277632115243
aF-4.585918870568777
aF2.298646453366863
aF-1.3664292065783235
aF0.6214770802512467
asg52
g9
(g10
(I0
tp368
g12
tp369
Rp370
(I1
(I1
I1
tp371
g19
I00
S"\x94f'{UL\x02\xc0"
p372
tp373
bsba.