ccopy_reg
_reconstructor
p0
(c__main__
Neural_Network
p1
c__builtin__
object
p2
Ntp3
Rp4
(dp5
S'output_layer_size'
p6
I1
sS'z2'
p7
cnumpy.core.multiarray
_reconstruct
p8
(cnumpy
ndarray
p9
(I0
tp10
S'b'
p11
tp12
Rp13
(I1
(I1
I6
tp14
cnumpy
dtype
p15
(S'f8'
p16
I0
I1
tp17
Rp18
(I3
S'<'
p19
NNNI-1
I-1
I0
tp20
bI00
S'\x8b \xb4\xd9\x01nr\xc0\xc1V\x14\xe7\x11\x0f\x91\xc0\xd0?\xd1\xdf\xe3-\x8e@\x95^\xa2\xd9Wk\x82@\xa2\xf0\xeef\xe3>{\xc0\xb0\xefr}\x80e\x8c\xc0'
p21
tp22
bsS'input_layer_size'
p23
I4
sS'hidden_layer_size'
p24
I6
sS'weights'
p25
(lp26
(lp27
(lp28
F0.13301946805033873
aF2.771884451518412
aF4.347501040720243
aF-2.16641588390146
aF-2.918359130708166
aF-1.5759235481958547
aa(lp29
F4.072466844699753
aF1.5242528573697578
aF-6.914444307019825
aF-3.3191192471733264
aF0.34545457336536944
aF-0.40106428016901463
aa(lp30
F1.902172133443498
aF1.5919132993676965
aF1.7781224984479727
aF2.2193446618485373
aF-2.8085003659250747
aF-3.004338147455111
aa(lp31
F1.4088600081714846
aF-2.5936608821047873
aF-0.03153523755165442
aF0.0660535975376681
aF-1.7765831485866386
aF-3.7365721358991477
aaa(lp32
(lp33
F1.568340657197825
aa(lp34
F-0.3272817644090388
aa(lp35
F-4.466111282253852
aa(lp36
F2.128915842611853
aa(lp37
F-1.7013631296415677
aa(lp38
F0.3714645432706682
aaasS'W2'
p39
g32
sS'W1'
p40
g27
sS'fitness'
p41
I139695
sS'a2'
p42
g8
(g9
(I0
tp43
g11
tp44
Rp45
(I1
(I1
I6
tp46
g18
I00
S'?\xad\xe2;\xa9\xfeW%\x00\x00\x00\x00\x00\x00\x00\x00\x00\x00\x00\x00\x00\x00\xf0?\x00\x00\x00\x00\x00\x00\xf0?\xc0\x01\xa8\x830\xf9\xa0\x18\x00\x00\x00\x00\x00\x00\x00\x00'
p47
tp48
bsS'chromosome'
p49
(lp50
F0.13301946805033873
aF2.771884451518412
aF4.347501040720243
aF-2.16641588390146
aF-2.918359130708166
aF-1.5759235481958547
aF4.072466844699753
aF1.5242528573697578
aF-6.914444307019825
aF-3.3191192471733264
aF0.34545457336536944
aF-0.40106428016901463
aF1.902172133443498
aF1.5919132993676965
aF1.7781224984479727
aF2.2193446618485373
aF-2.8085003659250747
aF-3.004338147455111
aF1.4088600081714846
aF-2.5936608821047873
aF-0.03153523755165442
aF0.0660535975376681
aF-1.7765831485866386
aF-3.7365721358991477
aF1.568340657197825
aF-0.3272817644090388
aF-4.466111282253852
aF2.128915842611853
aF-1.7013631296415677
aF0.3714645432706682
asS'z3'
p51
g8
(g9
(I0
tp52
g11
tp53
Rp54
(I1
(I1
I1
tp55
g18
I00
S'Y\xfb\xcc\x85\x93\xb2\x02\xc0'
p56
tp57
bsb.