(lp0
ccopy_reg
_reconstructor
p1
(c__main__
Neural_Network
p2
c__builtin__
object
p3
Ntp4
Rp5
(dp6
S'output_layer_size'
p7
I1
sS'z2'
p8
cnumpy.core.multiarray
_reconstruct
p9
(cnumpy
ndarray
p10
(I0
tp11
S'b'
p12
tp13
Rp14
(I1
(I1
I6
tp15
cnumpy
dtype
p16
(S'f8'
p17
I0
I1
tp18
Rp19
(I3
S'<'
p20
NNNI-1
I-1
I0
tp21
bI00
S'\x8b \xb4\xd9\x01nr\xc0\xc1V\x14\xe7\x11\x0f\x91\xc0\xd0?\xd1\xdf\xe3-\x8e@\x95^\xa2\xd9Wk\x82@\xa2\xf0\xeef\xe3>{\xc0\xb0\xefr}\x80e\x8c\xc0'
p22
tp23
bsS'input_layer_size'
p24
I4
sS'hidden_layer_size'
p25
I6
sS'weights'
p26
(lp27
(lp28
(lp29
F0.13301946805033873
aF2.771884451518412
aF4.347501040720243
aF-2.16641588390146
aF-2.918359130708166
aF-1.5759235481958547
aa(lp30
F4.072466844699753
aF1.5242528573697578
aF-6.914444307019825
aF-3.3191192471733264
aF0.34545457336536944
aF-0.40106428016901463
aa(lp31
F1.902172133443498
aF1.5919132993676965
aF1.7781224984479727
aF2.2193446618485373
aF-2.8085003659250747
aF-3.004338147455111
aa(lp32
F1.4088600081714846
aF-2.5936608821047873
aF-0.03153523755165442
aF0.0660535975376681
aF-1.7765831485866386
aF-3.7365721358991477
aaa(lp33
(lp34
F1.568340657197825
aa(lp35
F-0.3272817644090388
aa(lp36
F-4.466111282253852
aa(lp37
F2.128915842611853
aa(lp38
F-1.7013631296415677
aa(lp39
F0.3714645432706682
aaasS'W2'
p40
g33
sS'W1'
p41
g28
sS'fitness'
p42
I139695
sS'a2'
p43
g9
(g10
(I0
tp44
g12
tp45
Rp46
(I1
(I1
I6
tp47
g19
I00
S'?\xad\xe2;\xa9\xfeW%\x00\x00\x00\x00\x00\x00\x00\x00\x00\x00\x00\x00\x00\x00\xf0?\x00\x00\x00\x00\x00\x00\xf0?\xc0\x01\xa8\x830\xf9\xa0\x18\x00\x00\x00\x00\x00\x00\x00\x00'
p48
tp49
bsS'chromosome'
p50
(lp51
F0.13301946805033873
aF2.771884451518412
aF4.347501040720243
aF-2.16641588390146
aF-2.918359130708166
aF-1.5759235481958547
aF4.072466844699753
aF1.5242528573697578
aF-6.914444307019825
aF-3.3191192471733264
aF0.34545457336536944
aF-0.40106428016901463
aF1.902172133443498
aF1.5919132993676965
aF1.7781224984479727
aF2.2193446618485373
aF-2.8085003659250747
aF-3.004338147455111
aF1.4088600081714846
aF-2.5936608821047873
aF-0.03153523755165442
aF0.0660535975376681
aF-1.7765831485866386
aF-3.7365721358991477
aF1.568340657197825
aF-0.3272817644090388
aF-4.466111282253852
aF2.128915842611853
aF-1.7013631296415677
aF0.3714645432706682
asS'z3'
p52
g9
(g10
(I0
tp53
g12
tp54
Rp55
(I1
(I1
I1
tp56
g19
I00
S'Y\xfb\xcc\x85\x93\xb2\x02\xc0'
p57
tp58
bsbag1
(g2
g3
Ntp59
Rp60
(dp61
g7
I1
sg8
g9
(g10
(I0
tp62
g12
tp63
Rp64
(I1
(I1
I6
tp65
g19
I00
S"\xa0\x93,\x93\x147\x82\xc0}ZA'\xa1u\x80\xc0\xcc\xf6\xfav\xec0\x8d@\xd6\xd11\x83\xf5\xb3\x84@\xdex\x86'\xf8\xc8`\xc0\xb4\xdd\xee\x86\x95fm\xc0"
p66
tp67
bsg24
I4
sg25
I6
sg26
(lp68
(lp69
(lp70
F-0.042145518964989304
aF2.651074154906979
aF4.598555262249743
aF-1.8956547746266765
aF-2.9612208697812274
aF-1.350940918220885
aa(lp71
F4.583230277305713
aF2.0228639903399532
aF-6.276004243165265
aF-3.17055307191146
aF0.02709547768461612
aF-0.40106428016901463
aa(lp72
F1.6267507410855269
aF1.223572295258968
aF1.5154183170360733
aF2.275057237237918
aF-2.945082381624142
aF-3.395321842218612
aa(lp73
F1.799733503817071
aF-2.63493790026053
aF-0.10476602803702816
aF0.25513677076941355
aF-1.9421118085442592
aF-3.7365721358991477
aaa(lp74
(lp75
F1.5097754315102532
aa(lp76
F-0.19740134771907492
aa(lp77
F-4.445061890723371
aa(lp78
F2.128915842611853
aa(lp79
F-1.7013631296415677
aa(lp80
F0.3714645432706682
aaasg40
g74
sg41
g69
sg42
I359
sg43
g9
(g10
(I0
tp81
g12
tp82
Rp83
(I1
(I1
I6
tp84
g19
I00
S'@+\x84\x1cy\xd9`\x0b\xf4\x81\x1c%\x8ayq\x10\x00\x00\x00\x00\x00\x00\xf0?\x00\x00\x00\x00\x00\x00\xf0?Sd!\xc5`Z\xd33\x9b\x81@\xac@t\xb9*'
p85
tp86
bsg50
(lp87
F-0.042145518964989304
aF2.651074154906979
aF4.598555262249743
aF-1.8956547746266765
aF-2.9612208697812274
aF-1.350940918220885
aF4.583230277305713
aF2.0228639903399532
aF-6.276004243165265
aF-3.17055307191146
aF0.02709547768461612
aF-0.40106428016901463
aF1.6267507410855269
aF1.223572295258968
aF1.5154183170360733
aF2.275057237237918
aF-2.945082381624142
aF-3.395321842218612
aF1.799733503817071
aF-2.63493790026053
aF-0.10476602803702816
aF0.25513677076941355
aF-1.9421118085442592
aF-3.7365721358991477
aF1.5097754315102532
aF-0.19740134771907492
aF-4.445061890723371
aF2.128915842611853
aF-1.7013631296415677
aF0.3714645432706682
asg52
g9
(g10
(I0
tp88
g12
tp89
Rp90
(I1
(I1
I1
tp91
g19
I00
S']0K\x94w\x87\x02\xc0'
p92
tp93
bsbag1
(g2
g3
Ntp94
Rp95
(dp96
g7
I1
sg8
g9
(g10
(I0
tp97
g12
tp98
Rp99
(I1
(I1
I6
tp100
g19
I00
S'\xedi\xbc\xf9\x86x{@\x8aL]?i\xce\x94\xc05\x94\x16\x91\xdd<A\xc0\x02Fw\xf9\xd0\n\x83@S\xbc\xcfO\x84\x8e\x82\xc0M\x1dE\xc6&+\x95\xc0'
p101
tp102
bsg24
I4
sg25
I6
sg26
(lp103
(lp104
(lp105
F0.13301946805033873
aF2.771884451518412
aF4.598555262249743
aF-2.173417174083227
aF-2.6944443515299272
aF-1.1152401891732957
aa(lp106
F4.398956905790711
aF2.0228639903399532
aF-7.058743323223542
aF-3.463440159070689
aF0.02709547768461612
aF-0.17652560387674868
aa(lp107
F1.546199501271727
aF1.223572295258968
aF1.6854998424764962
aF2.286534590709949
aF-2.945082381624142
aF-3.1928653005395744
aa(lp108
F1.5941598379574953
aF-2.383658957499793
aF0.09960138996935312
aF-0.09317398768314761
aF-1.9421118085442592
aF-3.3548407539610063
aaa(lp109
(lp110
F2.0371104067529107
aa(lp111
F-0.04184399322925533
aa(lp112
F-4.434845081944632
aa(lp113
F2.298646453366863
aa(lp114
F-1.6437294066283885
aa(lp115
F0.07827602651110724
aaasg40
g109
sg41
g104
sg42
I29148
sg43
g9
(g10
(I0
tp116
g12
tp117
Rp118
(I1
(I1
I6
tp119
g19
I00
S'\x00\x00\x00\x00\x00\x00\xf0?\x00\x00\x00\x00\x00\x00\x00\x00\xfa\x8f\xdd\xa5\xde0\xd3<\x00\x00\x00\x00\x00\x00\xf0?\xeen\xe8\x13\xf0\xc9c\n\x00\x00\x00\x00\x00\x00\x00\x00'
p120
tp121
bsg50
(lp122
F0.13301946805033873
aF2.771884451518412
aF4.598555262249743
aF-2.173417174083227
aF-2.6944443515299272
aF-1.1152401891732957
aF4.398956905790711
aF2.0228639903399532
aF-7.058743323223542
aF-3.463440159070689
aF0.02709547768461612
aF-0.17652560387674868
aF1.546199501271727
aF1.223572295258968
aF1.6854998424764962
aF2.286534590709949
aF-2.945082381624142
aF-3.1928653005395744
aF1.5941598379574953
aF-2.383658957499793
aF0.09960138996935312
aF-0.09317398768314761
aF-1.9421118085442592
aF-3.3548407539610063
aF2.0371104067529107
aF-0.04184399322925533
aF-4.434845081944632
aF2.298646453366863
aF-1.6437294066283885
aF0.07827602651110724
asg52
g9
(g10
(I0
tp123
g12
tp124
Rp125
(I1
(I1
I1
tp126
g19
I00
S'\xfc|v\xa5\xd0W\x11@'
p127
tp128
bsbag1
(g2
g3
Ntp129
Rp130
(dp131
g7
I1
sg8
g9
(g10
(I0
tp132
g12
tp133
Rp134
(I1
(I1
I6
tp135
g19
I00
S'\xcc\xad\xc0\xd5E\xd2m\xc0}_C$\x7f\x86\x91\xc0\x86\xeeg\x97\xad\x89\x8e@w\x18\xad\x8f\x12\xa4\x82@\x90h\xfb\x19T\xe7}\xc0\xdb\xfc\xf6Urb\x8d\xc0'
p136
tp137
bsg24
I4
sg25
I6
sg26
(lp138
(lp139
(lp140
F0.13301946805033873
aF2.9613435807194746
aF4.347501040720243
aF-2.16641588390146
aF-2.918359130708166
aF-1.5759235481958547
aa(lp141
F4.072466844699753
aF1.2677404100690066
aF-7.004880348695832
aF-3.3191192471733264
aF0.2622760308672305
aF-0.2565048919558603
aa(lp142
F1.902172133443498
aF1.5919132993676965
aF1.7781224984479727
aF2.2193446618485373
aF-2.8085003659250747
aF-3.004338147455111
aa(lp143
F1.5941598379574953
aF-2.8490514780888487
aF-0.0777211996398195
aF0.0660535975376681
aF-1.9421118085442592
aF-3.7365721358991477
aaa(lp144
(lp145
F1.568340657197825
aa(lp146
F-0.2645989291075611
aa(lp147
F-4.240198493634105
aa(lp148
F2.128915842611853
aa(lp149
F-1.7013631296415677
aa(lp150
F0.3714645432706682
aaasg40
g144
sg41
g139
sg42
I59234
sg43
g9
(g10
(I0
tp151
g12
tp152
Rp153
(I1
(I1
I6
tp154
g19
I00
S'g\xbbG0\xea$l*\x00\x00\x00\x00\x00\x00\x00\x00\x00\x00\x00\x00\x00\x00\xf0?\x00\x00\x00\x00\x00\x00\xf0?\xac\xeb\xa6\xd2Y\x8e\xca\x14\x00\x00\x00\x00\x00\x00\x00\x00'
p155
tp156
bsg50
(lp157
F0.13301946805033873
aF2.9613435807194746
aF4.347501040720243
aF-2.16641588390146
aF-2.918359130708166
aF-1.5759235481958547
aF4.072466844699753
aF1.2677404100690066
aF-7.004880348695832
aF-3.3191192471733264
aF0.2622760308672305
aF-0.2565048919558603
aF1.902172133443498
aF1.5919132993676965
aF1.7781224984479727
aF2.2193446618485373
aF-2.8085003659250747
aF-3.004338147455111
aF1.5941598379574953
aF-2.8490514780888487
aF-0.0777211996398195
aF0.0660535975376681
aF-1.9421118085442592
aF-3.7365721358991477
aF1.568340657197825
aF-0.2645989291075611
aF-4.240198493634105
aF2.128915842611853
aF-1.7013631296415677
aF0.3714645432706682
asg52
g9
(g10
(I0
tp158
g12
tp159
Rp160
(I1
(I1
I1
tp161
g19
I00
S'\xa3\x05\x96(\xe8\xe3\x00\xc0'
p162
tp163
bsbag1
(g2
g3
Ntp164
Rp165
(dp166
g7
I1
sg8
g9
(g10
(I0
tp167
g12
tp168
Rp169
(I1
(I1
I6
tp170
g19
I00
S'e\xbb\xf6\xeb\xd9|\x81@x\xdc\xa7(\xc8k\x95\xc0\x88A\xca\x17\xad\xb7:\xc06\xb4\x86\xd5^\xb0\x83@\xb8\xc4(\xee\x99\xb2\x83\xc0\xd1O9G\xc9\x1c\x96\xc0'
p171
tp172
bsg24
I4
sg25
I6
sg26
(lp173
(lp174
(lp175
F-0.06760285201227684
aF2.9613435807194746
aF4.598555262249743
aF-2.173417174083227
aF-2.6944443515299272
aF-1.1152401891732957
aa(lp176
F4.183822791003137
aF2.0228639903399532
aF-6.782978698240343
aF-3.463440159070689
aF0.02709547768461612
aF-0.40106428016901463
aa(lp177
F1.546199501271727
aF1.223572295258968
aF1.6854998424764962
aF2.286534590709949
aF-2.945082381624142
aF-3.1928653005395744
aa(lp178
F1.5941598379574953
aF-2.383658957499793
aF0.3759403013635579
aF-0.09317398768314761
aF-1.9421118085442592
aF-3.3548407539610063
aaa(lp179
(lp180
F2.0371104067529107
aa(lp181
F-0.04184399322925533
aa(lp182
F-4.434845081944632
aa(lp183
F2.298646453366863
aa(lp184
F-1.6437294066283885
aa(lp185
F0.07827602651110724
aaasg40
g179
sg41
g174
sg42
I523
sg43
g9
(g10
(I0
tp186
g12
tp187
Rp188
(I1
(I1
I6
tp189
g19
I00
S'\x00\x00\x00\x00\x00\x00\xf0?\x00\x00\x00\x00\x00\x00\x00\x008\xe8\xa0\x9c\x03\xee\x85=\x00\x00\x00\x00\x00\x00\xf0?9\xe3\xdb\x12\x17\xd0\x18\x07\x00\x00\x00\x00\x00\x00\x00\x00'
p190
tp191
bsg50
(lp192
F-0.06760285201227684
aF2.9613435807194746
aF4.598555262249743
aF-2.173417174083227
aF-2.6944443515299272
aF-1.1152401891732957
aF4.183822791003137
aF2.0228639903399532
aF-6.782978698240343
aF-3.463440159070689
aF0.02709547768461612
aF-0.40106428016901463
aF1.546199501271727
aF1.223572295258968
aF1.6854998424764962
aF2.286534590709949
aF-2.945082381624142
aF-3.1928653005395744
aF1.5941598379574953
aF-2.383658957499793
aF0.3759403013635579
aF-0.09317398768314761
aF-1.9421118085442592
aF-3.3548407539610063
aF2.0371104067529107
aF-0.04184399322925533
aF-4.434845081944632
aF2.298646453366863
aF-1.6437294066283885
aF0.07827602651110724
asg52
g9
(g10
(I0
tp193
g12
tp194
Rp195
(I1
(I1
I1
tp196
g19
I00
S'`Lv\xa5\xd0W\x11@'
p197
tp198
bsbag1
(g2
g3
Ntp199
Rp200
(dp201
g7
I1
sg8
g9
(g10
(I0
tp202
g12
tp203
Rp204
(I1
(I1
I6
tp205
g19
I00
S'4\xb0\xa0\x82a\x91p\xc0N\xa0\x07\x10\xb4\xf5\x91\xc0\xf1\x96\xfdb!\xf7\x8e@\xfc\x9e\xe3\xea\r\xe3\x81@\xab\xc5\xf5Jv|x\xc0\x01\x0fI\xb7\xb8,\x89\xc0'
p206
tp207
bsg24
I4
sg25
I6
sg26
(lp208
(lp209
(lp210
F0.13301946805033873
aF2.9613435807194746
aF4.803000298701359
aF-2.2869949703167713
aF-2.6695762343242886
aF-1.1152401891732957
aa(lp211
F4.183822791003137
aF2.2795988873028703
aF-6.782978698240343
aF-3.463440159070689
aF-0.03454378206088005
aF-0.40106428016901463
aa(lp212
F1.537343881960407
aF1.223572295258968
aF1.6854998424764962
aF2.286534590709949
aF-2.945082381624142
aF-3.1928653005395744
aa(lp213
F1.5941598379574953
aF-2.383658957499793
aF0.09960138996935312
aF-0.09317398768314761
aF-1.815696457799224
aF-3.3548407539610063
aaa(lp214
(lp215
F2.0371104067529107
aa(lp216
F0.0977348149400257
aa(lp217
F-4.434845081944632
aa(lp218
F2.298646453366863
aa(lp219
F-1.6437294066283885
aa(lp220
F0.07827602651110724
aaasg40
g214
sg41
g209
sg42
I4515
sg43
g9
(g10
(I0
tp221
g12
tp222
Rp223
(I1
(I1
I6
tp224
g19
I00
S'x-\x1f\x96\r\x9c\x07(\x00\x00\x00\x00\x00\x00\x00\x00\x00\x00\x00\x00\x00\x00\xf0?\x00\x00\x00\x00\x00\x00\xf0?\xefO\xaa\xc4\xd2\x85\x9b\x1c\x00\x00\x00\x00\x00\x00\x00\x00'
p225
tp226
bsg50
(lp227
F0.13301946805033873
aF2.9613435807194746
aF4.803000298701359
aF-2.2869949703167713
aF-2.6695762343242886
aF-1.1152401891732957
aF4.183822791003137
aF2.2795988873028703
aF-6.782978698240343
aF-3.463440159070689
aF-0.03454378206088005
aF-0.40106428016901463
aF1.537343881960407
aF1.223572295258968
aF1.6854998424764962
aF2.286534590709949
aF-2.945082381624142
aF-3.1928653005395744
aF1.5941598379574953
aF-2.383658957499793
aF0.09960138996935312
aF-0.09317398768314761
aF-1.815696457799224
aF-3.3548407539610063
aF2.0371104067529107
aF0.0977348149400257
aF-4.434845081944632
aF2.298646453366863
aF-1.6437294066283885
aF0.07827602651110724
asg52
g9
(g10
(I0
tp228
g12
tp229
Rp230
(I1
(I1
I1
tp231
g19
I00
S'6\x03|N\xef\x16\x01\xc0'
p232
tp233
bsbag1
(g2
g3
Ntp234
Rp235
(dp236
g7
I1
sg8
g9
(g10
(I0
tp237
g12
tp238
Rp239
(I1
(I1
I6
tp240
g19
I00
S',Tx\xdb\xa1\xbb\x84\xc0\xda\x12D&I\x9e\x7f\xc0\x8e\xed^4%\x90\x8d@G\x8dq\xbf\xc1;\x82@\xf3\x07#F!\xb9M@x\xf0\xd8\xf7\xe2PH@'
p241
tp242
bsg24
I4
sg25
I6
sg26
(lp243
(lp244
(lp245
F0.13301946805033873
aF3.0722208131435904
aF4.74570011247094
aF-2.173417174083227
aF-2.6944443515299272
aF-1.1152401891732957
aa(lp246
F4.183822791003137
aF2.0228639903399532
aF-6.782978698240343
aF-3.463440159070689
aF0.02709547768461612
aF-0.40106428016901463
aa(lp247
F1.546199501271727
aF1.223572295258968
aF1.7486019498078014
aF2.286534590709949
aF-2.945082381624142
aF-3.1928653005395744
aa(lp248
F1.5941598379574953
aF-2.383658957499793
aF0.09960138996935312
aF-0.3447081350294651
aF-2.012688713672294
aF-3.3548407539610063
aaa(lp249
(lp250
F2.0371104067529107
aa(lp251
F-0.04184399322925533
aa(lp252
F-4.434845081944632
aa(lp253
F2.298646453366863
aa(lp254
F-1.6437294066283885
aa(lp255
F0.07827602651110724
aaasg40
g249
sg41
g244
sg42
I555
sg43
g9
(g10
(I0
tp256
g12
tp257
Rp258
(I1
(I1
I6
tp259
g19
I00
S'\xfd\xf3T\x12\xb1\x9a\x1c\x04\x17\x15\xb5\xfb\x92\xc3Q\x12\x00\x00\x00\x00\x00\x00\xf0?\x00\x00\x00\x00\x00\x00\xf0?\x00\x00\x00\x00\x00\x00\xf0?\x00\x00\x00\x00\x00\x00\xf0?'
p260
tp261
bsg50
(lp262
F0.13301946805033873
aF3.0722208131435904
aF4.74570011247094
aF-2.173417174083227
aF-2.6944443515299272
aF-1.1152401891732957
aF4.183822791003137
aF2.0228639903399532
aF-6.782978698240343
aF-3.463440159070689
aF0.02709547768461612
aF-0.40106428016901463
aF1.546199501271727
aF1.223572295258968
aF1.7486019498078014
aF2.286534590709949
aF-2.945082381624142
aF-3.1928653005395744
aF1.5941598379574953
aF-2.383658957499793
aF0.09960138996935312
aF-0.3447081350294651
aF-2.012688713672294
aF-3.3548407539610063
aF2.0371104067529107
aF-0.04184399322925533
aF-4.434845081944632
aF2.298646453366863
aF-1.6437294066283885
aF0.07827602651110724
asg52
g9
(g10
(I0
tp263
g12
tp264
Rp265
(I1
(I1
I1
tp266
g19
I00
S'\xc1$t\xba\xfb\x9c\r\xc0'
p267
tp268
bsbag1
(g2
g3
Ntp269
Rp270
(dp271
g7
I1
sg8
g9
(g10
(I0
tp272
g12
tp273
Rp274
(I1
(I1
I6
tp275
g19
I00
S'-\xc7\xa8\x00\xb5:y@\xcd\xd7I\x83_\xd8\x92\xc0\xe8\xe3\xa00\xb7\xa4<\xc0U\x8d%.\x8e\xf7\x82@\x85\x9d\xf0\x91\x1c\x11\x81\xc0 @4#\xd6\xd7\x91\xc0'
p276
tp277
bsg24
I4
sg25
I6
sg26
(lp278
(lp279
(lp280
F0.13301946805033873
aF2.9613435807194746
aF4.598555262249743
aF-2.173417174083227
aF-2.6957359378792143
aF-1.1152401891732957
aa(lp281
F4.183822791003137
aF2.0000250449378383
aF-6.646838119533647
aF-3.34514471612412
aF-0.27244913491146483
aF-0.40106428016901463
aa(lp282
F1.546199501271727
aF1.223572295258968
aF1.6854998424764962
aF2.286534590709949
aF-2.945082381624142
aF-3.384681927332604
aa(lp283
F1.7404254203803182
aF-2.383658957499793
aF0.2478257701567742
aF-0.09317398768314761
aF-2.2350392577317395
aF-3.3548407539610063
aaa(lp284
(lp285
F2.0371104067529107
aa(lp286
F-0.04184399322925533
aa(lp287
F-4.434845081944632
aa(lp288
F2.3323087842448826
aa(lp289
F-1.6437294066283885
aa(lp290
F0.04104463692398964
aaasg40
g284
sg41
g279
sg42
I348
sg43
g9
(g10
(I0
tp291
g12
tp292
Rp293
(I1
(I1
I6
tp294
g19
I00
S'\x00\x00\x00\x00\x00\x00\xf0?\x00\x00\x00\x00\x00\x00\x00\x00\xdb\xab\xfa\xa7v\x91Y=\x00\x00\x00\x00\x00\x00\xf0?\xaa v\x8d\xc1\x01\xb1\x0e\x00\x00\x00\x00\x00\x00\x00\x00'
p295
tp296
bsg50
(lp297
F0.13301946805033873
aF2.9613435807194746
aF4.598555262249743
aF-2.173417174083227
aF-2.6957359378792143
aF-1.1152401891732957
aF4.183822791003137
aF2.0000250449378383
aF-6.646838119533647
aF-3.34514471612412
aF-0.27244913491146483
aF-0.40106428016901463
aF1.546199501271727
aF1.223572295258968
aF1.6854998424764962
aF2.286534590709949
aF-2.945082381624142
aF-3.384681927332604
aF1.7404254203803182
aF-2.383658957499793
aF0.2478257701567742
aF-0.09317398768314761
aF-2.2350392577317395
aF-3.3548407539610063
aF2.0371104067529107
aF-0.04184399322925533
aF-4.434845081944632
aF2.3323087842448826
aF-1.6437294066283885
aF0.04104463692398964
asg52
g9
(g10
(I0
tp298
g12
tp299
Rp300
(I1
(I1
I1
tp301
g19
I00
S'\x9e_?\x06Iz\x11@'
p302
tp303
bsbag1
(g2
g3
Ntp304
Rp305
(dp306
g7
I1
sg8
g9
(g10
(I0
tp307
g12
tp308
Rp309
(I1
(I1
I6
tp310
g19
I00
S'\xe4\xb3\xcb\x91\xac\x97|\xc0\xa2\x9f\xf1^\xb0R\x87\xc0\xe9t\xd7\xda\xba\xba\x8e@\xb4V\xddr\x005\x80@\x96\xe7fA\x0b\xd5h\xc0\xf2\x81\xe5\xef\xec\x96w\xc0'
p311
tp312
bsg24
I4
sg25
I6
sg26
(lp313
(lp314
(lp315
F-0.035663283485134145
aF2.771884451518412
aF4.347501040720243
aF-2.06102260698904
aF-2.918359130708166
aF-1.5759235481958547
aa(lp316
F4.246271697263694
aF1.5056299145637881
aF-6.914444307019825
aF-3.1470415768467137
aF0.02709547768461612
aF-0.45275697344584614
aa(lp317
F1.546199501271727
aF0.9629899434371615
aF1.4572735758155655
aF2.1513588540254456
aF-2.945082381624142
aF-3.1928653005395744
aa(lp318
F1.5941598379574953
aF-2.63493790026053
aF-0.06241104658698478
aF-0.22523034452007842
aF-1.9421118085442592
aF-3.3548407539610063
aaa(lp319
(lp320
F2.0371104067529107
aa(lp321
F-0.04184399322925533
aa(lp322
F-4.434845081944632
aa(lp323
F2.0015806553216553
aa(lp324
F-1.9131464970998027
aa(lp325
F0.20425203352923976
aaasg40
g319
sg41
g314
sg42
I7573
sg43
g9
(g10
(I0
tp326
g12
tp327
Rp328
(I1
(I1
I6
tp329
g19
I00
S'[\thG\x9c\xeb\xaf\x16\x00\x00\x00\x00\x00\x00\x00\x00\x00\x00\x00\x00\x00\x00\xf0?\x00\x00\x00\x00\x00\x00\xf0?\x04P4L\xd6\x13\x05.+\x00\xf7\xdf\xe8N\xe6\x1d'
p330
tp331
bsg50
(lp332
F-0.035663283485134145
aF2.771884451518412
aF4.347501040720243
aF-2.06102260698904
aF-2.918359130708166
aF-1.5759235481958547
aF4.246271697263694
aF1.5056299145637881
aF-6.914444307019825
aF-3.1470415768467137
aF0.02709547768461612
aF-0.45275697344584614
aF1.546199501271727
aF0.9629899434371615
aF1.4572735758155655
aF2.1513588540254456
aF-2.945082381624142
aF-3.1928653005395744
aF1.5941598379574953
aF-2.63493790026053
aF-0.06241104658698478
aF-0.22523034452007842
aF-1.9421118085442592
aF-3.3548407539610063
aF2.0371104067529107
aF-0.04184399322925533
aF-4.434845081944632
aF2.0015806553216553
aF-1.9131464970998027
aF0.20425203352923976
asg52
g9
(g10
(I0
tp333
g12
tp334
Rp335
(I1
(I1
I1
tp336
g19
I00
S'P\xed\xf6VSw\x03\xc0'
p337
tp338
bsbag1
(g2
g3
Ntp339
Rp340
(dp341
g7
I1
sg8
g9
(g10
(I0
tp342
g12
tp343
Rp344
(I1
(I1
I6
tp345
g19
I00
S'\xff\xe50\xfa\x93Eu\xc0|c\xf8\x97W\x19\x91\xc0\x98\xaa\xd5E\'\xfc\x8d@\x0c"\xa0\xcc\x03\xf8\x82@\xa2\xa9\x9e\xe4\x9b\xc8{\xc0\x9b2\xdf\xe67 \x8a\xc0'
p346
tp347
bsg24
I4
sg25
I6
sg26
(lp348
(lp349
(lp350
F0.13301946805033873
aF2.9613435807194746
aF4.598555262249743
aF-1.8779996380583337
aF-2.836913464754675
aF-1.0925468212479306
aa(lp351
F4.464860597357187
aF1.7619537966305157
aF-6.782978698240343
aF-3.3191192471733264
aF0.2622760308672305
aF-0.40106428016901463
aa(lp352
F1.902172133443498
aF1.5919132993676965
aF1.7781224984479727
aF2.2193446618485373
aF-2.8445366015505145
aF-3.004338147455111
aa(lp353
F1.5941598379574953
aF-2.8490514780888487
aF-0.0777211996398195
aF0.0660535975376681
aF-1.9421118085442592
aF-3.7365721358991477
aaa(lp354
(lp355
F1.568340657197825
aa(lp356
F-0.48840028420475684
aa(lp357
F-4.516357314559392
aa(lp358
F2.128915842611853
aa(lp359
F-1.7013631296415677
aa(lp360
F0.3714645432706682
aaasg40
g354
sg41
g349
sg42
I371
sg43
g9
(g10
(I0
tp361
g12
tp362
Rp363
(I1
(I1
I6
tp364
g19
I00
S"\xedy\xee\x07E\x93?!\x00\x00\x00\x00\x00\x00\x00\x00\x00\x00\x00\x00\x00\x00\xf0?\x00\x00\x00\x00\x00\x00\xf0?-+}O'h\xd9\x17\x00\x00\x00\x00\x00\x00\x00\x00"
p365
tp366
bsg50
(lp367
F0.13301946805033873
aF2.9613435807194746
aF4.598555262249743
aF-1.8779996380583337
aF-2.836913464754675
aF-1.0925468212479306
aF4.464860597357187
aF1.7619537966305157
aF-6.782978698240343
aF-3.3191192471733264
aF0.2622760308672305
aF-0.40106428016901463
aF1.902172133443498
aF1.5919132993676965
aF1.7781224984479727
aF2.2193446618485373
aF-2.8445366015505145
aF-3.004338147455111
aF1.5941598379574953
aF-2.8490514780888487
aF-0.0777211996398195
aF0.0660535975376681
aF-1.9421118085442592
aF-3.7365721358991477
aF1.568340657197825
aF-0.48840028420475684
aF-4.516357314559392
aF2.128915842611853
aF-1.7013631296415677
aF0.3714645432706682
asg52
g9
(g10
(I0
tp368
g12
tp369
Rp370
(I1
(I1
I1
tp371
g19
I00
S'\xbf\x07\x19\xeaz\x19\x03\xc0'
p372
tp373
bsba.